Microchip MPLAB XC8 Compiler V2.30

Linker command line:

-W-3 --edf=C:\Program Files\Microchip\xc8\v2.30\pic\dat\en_msgs.txt -cn \
  -h+dist/default/production\TCC_telemetria.X.production.sym \
  --cmf=dist/default/production\TCC_telemetria.X.production.cmf -z \
  -Q18F4550 -oC:\Users\Felipe\AppData\Local\Temp\st4x2 \
  -Mdist/default/production/TCC_telemetria.X.production.map -E1 \
  -ver=XC8 Compiler -ASTACK=0542h-07FFh -pstack=STACK -ACODE=00h-0627Fh \
  -ACONST=00h-0627Fh -ASMALLCONST=0800h-08FFhx90,06200h-0627Fh \
  -AMEDIUMCONST=0800h-0627Fh -ACOMRAM=01h-05Fh -AABS1=00h-07FFh \
  -ABIGRAM=01h-07FFh -ARAM=060h-0FFh,0100h-01FFhx7 -ABANK0=060h-0FFh \
  -ABANK1=0100h-01FFh -ABANK2=0200h-02FFh -ABANK3=0300h-03FFh \
  -ABANK4=0400h-04FFh -ABANK5=0500h-05FFh -ABANK6=0600h-06FFh \
  -ABANK7=0700h-07FFh -ASFR=0F60h-0FFFh -ACONFIG=0300000h-030000Dh \
  -AIDLOC=0200000h-0200007h -AEEDATA=0F00000h-0F000FFh -peeprom_data=EEDATA \
  -preset_vec=00h,intcode=08h,intcodelo,powerup,init -pramtop=0800h \
  -psmallconst=SMALLCONST -pmediumconst=MEDIUMCONST -pconst=CONST \
  -AFARRAM=00h-00h \
  -prdata=COMRAM,nvrram=COMRAM,nvbit=COMRAM,rbss=COMRAM,rbit=COMRAM \
  -pfarbss=FARRAM,fardata=FARRAM,nvFARRAM=FARRAM \
  -pintsave_regs=BIGRAM,bigbss=BIGRAM,bigdata=BIGRAM -pbss=RAM \
  -pidata=CODE,irdata=CODE,ibigdata=CODE,ifardata=CODE -prparam=COMRAM \
  C:\Users\Felipe\AppData\Local\Temp\st4x8.obj \
  dist/default/production\TCC_telemetria.X.production.obj 

Object code version is 3.11

Machine type is 18F4550



                Name                               Link     Load   Length Selector   Space Scale
C:\Users\Felipe\AppData\Local\Temp\st4x8.obj
                idloc                            200000   200000        8        0       5
                config                           300000   300000        E        0       4
                init                                  E        E        4        4       0
                reset_vec                             0        0        4        0       0
dist/default/production\TCC_telemetria.X.production.obj
                intcode                               8        8        6        4       0
                idloc                            200000   200000        8        0       5
                config                           300000   300000        E        0       4
                temp                                 47       47        1        1       1
                mediumconst                        60E6     60E6      19A     3073       0
                text103                            4D18     4D18       4A        4       0
                text102                            4DF2     4DF2       46        4       0
                text101                            2346     2346      2C4        4       0
                text100                            538C     538C       12        4       0
                text99                             5432     5432        A        4       0
                intcode_body                       3BEC     3BEC      118        4       0
                text97                             5136     5136       2A        4       0
                text96                             3E10     3E10      10C        4       0
                text95                             4F7E     4F7E       3A        4       0
                text94                             53FE     53FE        C        4       0
                text93                             53CC     53CC        E        4       0
                text92                             527A     527A       22        4       0
                text91                             51AC     51AC       24        4       0
                text90                             5258     5258       22        4       0
                text89                             5236     5236       22        4       0
                text88                             5214     5214       22        4       0
                text87                             51F2     51F2       22        4       0
                text86                             3722     3722      156        4       0
                text85                             52BC     52BC       20        4       0
                text84                             53F2     53F2        C        4       0
                text83                             4F42     4F42       3C        4       0
                text82                             53AE     53AE       10        4       0
                text81                             4FEE     4FEE       36        4       0
                text80                             4B24     4B24       5A        4       0
                text79                             53E6     53E6        C        4       0
                text78                             53DA     53DA        C        4       0
                text77                             3AC8     3AC8      124        4       0
                text76                             491E     491E       70        4       0
                text75                             2F78     2F78      1B6        4       0
                text74                             4CCA     4CCA       4E        4       0
                text73                             312E     312E      1AA        4       0
                text72                             4C78     4C78       52        4       0
                text71                             539E     539E       10        4       0
                text70                             5056     5056       30        4       0
                text69                             4DAA     4DAA       48        4       0
                text68                             39A4     39A4      124        4       0
                text67                             510C     510C       2A        4       0
                text66                             473A     473A       82        4       0
                text65                             5186     5186       26        4       0
                text64                             2D56     2D56      222        4       0
                text63                             2AF0     2AF0      266        4       0
                text62                             32D8     32D8      18C        4       0
                text61                             11D0     11D0      48A        4       0
                text60                             4D62     4D62       48        4       0
                text59                             4B7E     4B7E       56        4       0
                text58                             4480     4480       92        4       0
                text57                             46B8     46B8       82        4       0
                text56                             52FA     52FA       1E        4       0
                text55                             48AC     48AC       72        4       0
                text54                             4C26     4C26       52        4       0
                text53                             498E     498E       6A        4       0
                text52                             4AC6     4AC6       5E        4       0
                text51                             4512     4512       90        4       0
                text50                             2046     2046      300        4       0
                text49                             5160     5160       26        4       0
                text48                             50E0     50E0       2C        4       0
                text47                              C88      C88      548        4       0
                text46                             4E7C     4E7C       44        4       0
                text45                             4350     4350       9C        4       0
                text44                             40B6     40B6       B2        4       0
                text43                             3464     3464      164        4       0
                text42                             2882     2882      26E        4       0
                text41                             35C8     35C8      15A        4       0
                text40                             260A     260A      278        4       0
                text39                             1D14     1D14      332        4       0
                text38                             5428     5428        A        4       0
                text37                             4A60     4A60       66        4       0
                text36                              6FE      6FE      58A        4       0
                text35                             4F02     4F02       40        4       0
                text34                             462E     462E       8A        4       0
                text33                             165A     165A      37E        4       0
                text32                             529C     529C       20        4       0
                text31                             3FEA     3FEA       CC        4       0
                text30                             3D04     3D04      10C        4       0
                text29                             51D0     51D0       22        4       0
                text28                             4E38     4E38       44        4       0
                text27                             5086     5086       2E        4       0
                text26                             3878     3878      12C        4       0
                text25                             541E     541E        A        4       0
                text24                             5414     5414        A        4       0
                text23                             45A2     45A2       8C        4       0
                text22                             4BD4     4BD4       52        4       0
                text21                             4EC0     4EC0       42        4       0
                text20                             43EC     43EC       94        4       0
                text19                             5024     5024       32        4       0
                text18                             4FB8     4FB8       36        4       0
                text17                             52DC     52DC       1E        4       0
                text16                             3F1C     3F1C       CE        4       0
                text15                               12       12      6EC        4       0
                text14                             544C     544C        2     2A26       0
                text13                             5364     5364       16        4       0
                text12                             19D8     19D8      33C        4       0
                text11                             4168     4168       A6        4       0
                text10                             49F8     49F8       68        4       0
                text9                              53BE     53BE        E        4       0
                text8                              540A     540A        A        4       0
                text7                              5334     5334       1A        4       0
                text6                              537A     537A       12        4       0
                text5                              543C     543C        8        4       0
                text4                              5318     5318       1C        4       0
                text3                              534E     534E       16        4       0
                text2                              42B2     42B2       9E        4       0
                text1                              4836     4836       76        4       0
                text0                              50B4     50B4       2C        4       0
                cstackCOMRAM                          1        1       32        1       1
                cstackBANK0                          60       60       96       60       1
                cstackBANK3                         300      300       22      300       1
                bssBIGRAM                           322      322      220      322       1
                dataBANK2                           200      200       7A      200       1
                bssBANK2                            27A      27A       78      200       1
                dataBANK1                           1F4      1F4        7      100       1
                bssBANK1                            100      100       F4      100       1
                bssBANK0                             F6       F6        8       60       1
                dataCOMRAM                           46       46        1        1       1
                bssCOMRAM                            33       33       13        1       1
                cinit                              420E     420E       A4        4       0
                idataBANK2                         47BC     47BC       7A        4       0
                idataBANK1                         5444     5444        7        4       0
                idataCOMRAM                        544E     544E        1     2A26       0

TOTAL           Name                               Link     Load   Length     Space
        CLASS   STACK          

        CLASS   CODE           
                intcode                               8        8        6         0
                init                                  E        E        4         0
                reset_vec                             0        0        4         0
                text103                            4D18     4D18       4A         0
                text102                            4DF2     4DF2       46         0
                text101                            2346     2346      2C4         0
                text100                            538C     538C       12         0
                text99                             5432     5432        A         0
                intcode_body                       3BEC     3BEC      118         0
                text97                             5136     5136       2A         0
                text96                             3E10     3E10      10C         0
                text95                             4F7E     4F7E       3A         0
                text94                             53FE     53FE        C         0
                text93                             53CC     53CC        E         0
                text92                             527A     527A       22         0
                text91                             51AC     51AC       24         0
                text90                             5258     5258       22         0
                text89                             5236     5236       22         0
                text88                             5214     5214       22         0
                text87                             51F2     51F2       22         0
                text86                             3722     3722      156         0
                text85                             52BC     52BC       20         0
                text84                             53F2     53F2        C         0
                text83                             4F42     4F42       3C         0
                text82                             53AE     53AE       10         0
                text81                             4FEE     4FEE       36         0
                text80                             4B24     4B24       5A         0
                text79                             53E6     53E6        C         0
                text78                             53DA     53DA        C         0
                text77                             3AC8     3AC8      124         0
                text76                             491E     491E       70         0
                text75                             2F78     2F78      1B6         0
                text74                             4CCA     4CCA       4E         0
                text73                             312E     312E      1AA         0
                text72                             4C78     4C78       52         0
                text71                             539E     539E       10         0
                text70                             5056     5056       30         0
                text69                             4DAA     4DAA       48         0
                text68                             39A4     39A4      124         0
                text67                             510C     510C       2A         0
                text66                             473A     473A       82         0
                text65                             5186     5186       26         0
                text64                             2D56     2D56      222         0
                text63                             2AF0     2AF0      266         0
                text62                             32D8     32D8      18C         0
                text61                             11D0     11D0      48A         0
                text60                             4D62     4D62       48         0
                text59                             4B7E     4B7E       56         0
                text58                             4480     4480       92         0
                text57                             46B8     46B8       82         0
                text56                             52FA     52FA       1E         0
                text55                             48AC     48AC       72         0
                text54                             4C26     4C26       52         0
                text53                             498E     498E       6A         0
                text52                             4AC6     4AC6       5E         0
                text51                             4512     4512       90         0
                text50                             2046     2046      300         0
                text49                             5160     5160       26         0
                text48                             50E0     50E0       2C         0
                text47                              C88      C88      548         0
                text46                             4E7C     4E7C       44         0
                text45                             4350     4350       9C         0
                text44                             40B6     40B6       B2         0
                text43                             3464     3464      164         0
                text42                             2882     2882      26E         0
                text41                             35C8     35C8      15A         0
                text40                             260A     260A      278         0
                text39                             1D14     1D14      332         0
                text38                             5428     5428        A         0
                text37                             4A60     4A60       66         0
                text36                              6FE      6FE      58A         0
                text35                             4F02     4F02       40         0
                text34                             462E     462E       8A         0
                text33                             165A     165A      37E         0
                text32                             529C     529C       20         0
                text31                             3FEA     3FEA       CC         0
                text30                             3D04     3D04      10C         0
                text29                             51D0     51D0       22         0
                text28                             4E38     4E38       44         0
                text27                             5086     5086       2E         0
                text26                             3878     3878      12C         0
                text25                             541E     541E        A         0
                text24                             5414     5414        A         0
                text23                             45A2     45A2       8C         0
                text22                             4BD4     4BD4       52         0
                text21                             4EC0     4EC0       42         0
                text20                             43EC     43EC       94         0
                text19                             5024     5024       32         0
                text18                             4FB8     4FB8       36         0
                text17                             52DC     52DC       1E         0
                text16                             3F1C     3F1C       CE         0
                text15                               12       12      6EC         0
                text14                             544C     544C        2         0
                text13                             5364     5364       16         0
                text12                             19D8     19D8      33C         0
                text11                             4168     4168       A6         0
                text10                             49F8     49F8       68         0
                text9                              53BE     53BE        E         0
                text8                              540A     540A        A         0
                text7                              5334     5334       1A         0
                text6                              537A     537A       12         0
                text5                              543C     543C        8         0
                text4                              5318     5318       1C         0
                text3                              534E     534E       16         0
                text2                              42B2     42B2       9E         0
                text1                              4836     4836       76         0
                text0                              50B4     50B4       2C         0
                cinit                              420E     420E       A4         0
                idataBANK2                         47BC     47BC       7A         0
                idataBANK1                         5444     5444        7         0
                idataCOMRAM                        544E     544E        1         0

        CLASS   CONST          

        CLASS   SMALLCONST     

        CLASS   MEDIUMCONST    
                mediumconst                        60E6     60E6      19A         0

        CLASS   COMRAM         
                temp                                 47       47        1         1
                cstackCOMRAM                          1        1       32         1
                dataCOMRAM                           46       46        1         1
                bssCOMRAM                            33       33       13         1

        CLASS   ABS1           

        CLASS   BIGRAM         
                bssBIGRAM                           322      322      220         1

        CLASS   RAM            

        CLASS   BANK0          
                cstackBANK0                          60       60       96         1
                bssBANK0                             F6       F6        8         1

        CLASS   BANK1          
                dataBANK1                           1F4      1F4        7         1
                bssBANK1                            100      100       F4         1

        CLASS   BANK2          
                dataBANK2                           200      200       7A         1
                bssBANK2                            27A      27A       78         1

        CLASS   BANK3          
                cstackBANK3                         300      300       22         1

        CLASS   BANK4          

        CLASS   BANK5          

        CLASS   BANK6          

        CLASS   BANK7          

        CLASS   SFR            

        CLASS   CONFIG         
                config                           300000   300000        E         4

        CLASS   IDLOC          
                idloc                            200000   200000        8         5

        CLASS   EEDATA         

        CLASS   FARRAM         



SEGMENTS        Name                           Load    Length   Top    Selector   Space  Class

                reset_vec                      000000  000004  000004         0       0  CODE    
                cstackCOMRAM                   000001  000047  000048         1       1  COMRAM  
                intcode                        000008  005443  00544B         4       0  CODE    
                cstackBANK0                    000060  00009E  0000FE        60       1  BANK0   
                bssBANK1                       000100  0000FB  0001FB       100       1  BANK1   
                dataBANK2                      000200  0000F2  0002F2       200       1  BANK2   
                cstackBANK3                    000300  000022  000322       300       1  BANK3   
                bssBIGRAM                      000322  000220  000542       322       1  BIGRAM  
                text14                         00544C  000003  00544F      2A26       0  CODE    
                mediumconst                    0060E6  00019A  006280      3073       0  MEDIUMCO


UNUSED ADDRESS RANGES

        Name                Unused          Largest block    Delta
        BANK0            0000FE-0000FF                2
        BANK1            0001FB-0001FF                5
        BANK2            0002F2-0002FF                E
        BANK5            000542-0005FF               BE
        BANK6            000600-0006FF              100
        BANK7            000700-0007FF              100
        BIGRAM           000048-00005F               18
                         0000FE-0000FF                2
                         0001FB-0001FF                5
                         0002F2-0002FF                E
                         000542-0007FF              2BE
        CODE             000004-000007                4
                         00544B-00544B                1
                         00544F-0060E5              C97
        COMRAM           000048-00005F               18
        CONST            000004-000007                4
                         00544B-00544B                1
                         00544F-0060E5              C97
        EEDATA           F00000-F000FF              100
        MEDIUMCONST      00544B-00544B                1
                         00544F-0060E5              C97
        RAM              0000FE-0000FF                2
                         0001FB-0001FF                5
                         0002F2-0002FF                E
                         000542-0007FF              100
        SFR              000F60-000FFF               A0
        SMALLCONST       00544B-00544B                1
                         00544F-0060E5              100
        STACK            000542-0007FF              2BE

                                  Symbol Table

?_GPSDay                                cstackCOMRAM 000019
?_GPSHour                               cstackCOMRAM 000019
?_GPSMinute                             cstackCOMRAM 000019
?_GPSMonth                              cstackCOMRAM 000019
?_GPSSecond                             cstackCOMRAM 000019
?_GPSyear                               cstackCOMRAM 000019
?_Latitude                              cstackCOMRAM 000019
?_Longitude                             cstackCOMRAM 000019
?___aldiv                               cstackCOMRAM 000019
?___lldiv                               cstackCOMRAM 000019
?___llmod                               cstackCOMRAM 000019
?___lmul                                cstackCOMRAM 000019
?___lwdiv                               cstackCOMRAM 000019
?___lwmod                               cstackCOMRAM 000019
?___wmul                                cstackCOMRAM 000019
?_atoi                                  cstackCOMRAM 00001F
?_clust2sect                            cstackCOMRAM 000025
?_create_chain                          cstackBANK0  0000A0
?_fix                                   cstackCOMRAM 000019
?_fprintf                               cstackBANK0  0000DA
?_fputc                                 cstackBANK0  0000CC
?_fputs                                 cstackBANK0  0000D3
?_get_cluster                           cstackCOMRAM 000031
?_get_fattime                           cstackCOMRAM 00001D
?_memcmp                                cstackCOMRAM 000019
?_strcmp                                cstackCOMRAM 000001
?_strlen                                cstackCOMRAM 000019
GPSRead@buff                            cstackCOMRAM 00000A
GPSRead@c                               cstackCOMRAM 00000B
_ADCON1                                 (abs)        000FC1
_BRGH                                   (abs)        007D62
_CREN                                   (abs)        007D5C
_FatFs                                  bssCOMRAM    000039
_GPGGA_ok                               bssBANK1     00011C
_GPRMC_ok                               bssBANK0     0000FB
_GPSDay                                 text92       00527A
_GPSHour                                text91       0051AC
_GPSMinute                              text90       005258
_GPSMonth                               text89       005236
_GPSRead                                text101      002346
_GPSSecond                              text88       005214
_GPSyear                                text87       0051F2
_INT0IE                                 (abs)        007F94
_INT0IF                                 (abs)        007F91
_INTCON                                 (abs)        000FF2
_INTCON2                                (abs)        000FF1
_INTCON3                                (abs)        000FF0
_INTCONbits                             (abs)        000FF2
_LATB                                   (abs)        000F8A
_LATBbits                               (abs)        000F8A
_LATCbits                               (abs)        000F8B
_Latitude                               text25       00541E
_Longitude                              text24       005414
_OSCCONbits                             (abs)        000FD3
_PCL                                    (abs)        000FF9
_PCLATH                                 (abs)        000FFA
_PIE1                                   (abs)        000F9D
_PIE1bits                               (abs)        000F9D
_PIR1bits                               (abs)        000F9E
_PORTBbits                              (abs)        000F81
_PORTDbits                              (abs)        000F83
_PORTEbits                              (abs)        000F84
_PR2                                    (abs)        000FCB
_RCIF                                   (abs)        007CF5
_RCREG                                  (abs)        000FAE
_RCSTA                                  (abs)        000FAB
_RCSTAbits                              (abs)        000FAB
_SPBRG                                  (abs)        000FAF
_SPEN                                   (abs)        007D5F
_SPPCFG                                 (abs)        000F63
_SPPCON                                 (abs)        000F65
_SSPBUF                                 (abs)        000FC9
_SSPCON1                                (abs)        000FC6
_SSPCON1bits                            (abs)        000FC6
_SSPSTAT                                (abs)        000FC7
_SSPSTATbits                            (abs)        000FC7
_SYNC                                   (abs)        007D64
_SentenceType                           bssCOMRAM    000044
_T0CON                                  (abs)        000FD5
_T0CONbits                              (abs)        000FD5
_T0IF                                   (abs)        007F92
_T2CON                                  (abs)        000FCA
_TMR0                                   (abs)        000FD6
_TMR0IF                                 (abs)        007F92
_TMR2                                   (abs)        000FCC
_TRISA                                  (abs)        000F92
_TRISB                                  (abs)        000F93
_TRISBbits                              (abs)        000F93
_TRISC                                  (abs)        000F94
_TRISCbits                              (abs)        000F94
_TRISD                                  (abs)        000F95
_TRISDbits                              (abs)        000F95
_TRISE                                  (abs)        000F96
_TXEN                                   (abs)        007D65
_TXSTA                                  (abs)        000FAC
_Term                                   bssCOMRAM    000043
__HRAM                                  (abs)        000000
__Habs1                                 abs1         000000
__Hbank0                                bank0        000000
__Hbank1                                bank1        000000
__Hbank2                                bank2        000000
__Hbank3                                bank3        000000
__Hbank4                                bank4        000000
__Hbank5                                bank5        000000
__Hbank6                                bank6        000000
__Hbank7                                bank7        000000
__Hbigbss                               bigbss       000000
__Hbigdata                              bigdata      000000
__Hbigram                               bigram       000000
__Hbss                                  bss          000000
__HbssBANK0                             bssBANK0     000000
__HbssBANK1                             bssBANK1     000000
__HbssBANK2                             bssBANK2     000000
__HbssBIGRAM                            bssBIGRAM    000000
__HbssCOMRAM                            bssCOMRAM    000000
__Hcinit                                cinit        000000
__Hclrtext                              clrtext      000000
__Hcomram                               comram       000000
__Hconfig                               config       30000E
__Hconst                                const        000000
__HcstackBANK0                          cstackBANK0  000000
__HcstackBANK3                          cstackBANK3  000000
__HcstackCOMRAM                         cstackCOMRAM 000000
__Hdata                                 data         000000
__HdataBANK1                            dataBANK1    000000
__HdataBANK2                            dataBANK2    000000
__HdataCOMRAM                           dataCOMRAM   000000
__Heeprom_data                          eeprom_data  000000
__Hfarbss                               farbss       000000
__Hfardata                              fardata      000000
__Hibigdata                             ibigdata     000000
__Hidata                                idata        000000
__HidataBANK1                           idataBANK1   000000
__HidataBANK2                           idataBANK2   000000
__HidataCOMRAM                          idataCOMRAM  000000
__Hidloc                                idloc        200008
__Hifardata                             ifardata     000000
__Hinit                                 init         000012
__Hintcode                              intcode      00000E
__Hintcode_body                         intcode_body 000000
__Hintcodelo                            intcodelo    00000E
__Hintentry                             intentry     000000
__Hintret                               intret       000000
__Hintsave_regs                         intsave_regs 000000
__Hirdata                               irdata       000000
__Hmediumconst                          mediumconst  006280
__HnvFARRAM                             nvFARRAM     000000
__Hnvbit                                nvbit        000000
__Hnvrram                               nvrram       000000
__Hparam                                rparam       000000
__Hpowerup                              powerup      00000E
__Hram                                  ram          000000
__Hramtop                               ramtop       000800
__Hrbit                                 rbit         000000
__Hrbss                                 rbss         000000
__Hrdata                                rdata        000000
__Hreset_vec                            reset_vec    000004
__Hrparam                               rparam       000000
__Hsfr                                  sfr          000000
__Hsmallconst                           smallconst   000000
__Hspace_0                              (abs)        006280
__Hspace_1                              (abs)        000542
__Hspace_2                              (abs)        000000
__Hspace_4                              (abs)        60000E
__Hstack                                stack        000000
__Hstruct                               struct       000000
__Htemp                                 temp         000048
__Htext                                 text         000000
__Htext0                                text0        000000
__Htext1                                text1        000000
__Htext10                               text10       000000
__Htext100                              text100      000000
__Htext101                              text101      000000
__Htext102                              text102      000000
__Htext103                              text103      000000
__Htext104                              text104      000000
__Htext11                               text11       000000
__Htext12                               text12       000000
__Htext13                               text13       000000
__Htext14                               text14       000000
__Htext15                               text15       000000
__Htext16                               text16       000000
__Htext17                               text17       000000
__Htext18                               text18       000000
__Htext19                               text19       000000
__Htext2                                text2        000000
__Htext20                               text20       000000
__Htext21                               text21       000000
__Htext22                               text22       000000
__Htext23                               text23       000000
__Htext24                               text24       000000
__Htext25                               text25       000000
__Htext26                               text26       000000
__Htext27                               text27       000000
__Htext28                               text28       000000
__Htext29                               text29       000000
__Htext3                                text3        000000
__Htext30                               text30       000000
__Htext31                               text31       000000
__Htext32                               text32       000000
__Htext33                               text33       000000
__Htext34                               text34       000000
__Htext35                               text35       000000
__Htext36                               text36       000000
__Htext37                               text37       000000
__Htext38                               text38       000000
__Htext39                               text39       000000
__Htext4                                text4        000000
__Htext40                               text40       000000
__Htext41                               text41       000000
__Htext42                               text42       000000
__Htext43                               text43       000000
__Htext44                               text44       000000
__Htext45                               text45       000000
__Htext46                               text46       000000
__Htext47                               text47       000000
__Htext48                               text48       000000
__Htext49                               text49       000000
__Htext5                                text5        000000
__Htext50                               text50       000000
__Htext51                               text51       000000
__Htext52                               text52       000000
__Htext53                               text53       000000
__Htext54                               text54       000000
__Htext55                               text55       000000
__Htext56                               text56       000000
__Htext57                               text57       000000
__Htext58                               text58       000000
__Htext59                               text59       000000
__Htext6                                text6        000000
__Htext60                               text60       000000
__Htext61                               text61       000000
__Htext62                               text62       000000
__Htext63                               text63       000000
__Htext64                               text64       000000
__Htext65                               text65       000000
__Htext66                               text66       000000
__Htext67                               text67       000000
__Htext68                               text68       000000
__Htext69                               text69       000000
__Htext7                                text7        000000
__Htext70                               text70       000000
__Htext71                               text71       000000
__Htext72                               text72       000000
__Htext73                               text73       000000
__Htext74                               text74       000000
__Htext75                               text75       000000
__Htext76                               text76       000000
__Htext77                               text77       000000
__Htext78                               text78       000000
__Htext79                               text79       000000
__Htext8                                text8        000000
__Htext80                               text80       000000
__Htext81                               text81       000000
__Htext82                               text82       000000
__Htext83                               text83       000000
__Htext84                               text84       000000
__Htext85                               text85       000000
__Htext86                               text86       000000
__Htext87                               text87       000000
__Htext88                               text88       000000
__Htext89                               text89       000000
__Htext9                                text9        000000
__Htext90                               text90       000000
__Htext91                               text91       000000
__Htext92                               text92       000000
__Htext93                               text93       000000
__Htext94                               text94       000000
__Htext95                               text95       000000
__Htext96                               text96       000000
__Htext97                               text97       000000
__Htext99                               text99       000000
__LRAM                                  (abs)        000001
__Labs1                                 abs1         000000
__Lbank0                                bank0        000000
__Lbank1                                bank1        000000
__Lbank2                                bank2        000000
__Lbank3                                bank3        000000
__Lbank4                                bank4        000000
__Lbank5                                bank5        000000
__Lbank6                                bank6        000000
__Lbank7                                bank7        000000
__Lbigbss                               bigbss       000000
__Lbigdata                              bigdata      000000
__Lbigram                               bigram       000000
__Lbss                                  bss          000000
__LbssBANK0                             bssBANK0     000000
__LbssBANK1                             bssBANK1     000000
__LbssBANK2                             bssBANK2     000000
__LbssBIGRAM                            bssBIGRAM    000000
__LbssCOMRAM                            bssCOMRAM    000000
__Lcinit                                cinit        000000
__Lclrtext                              clrtext      000000
__Lcomram                               comram       000000
__Lconfig                               config       000000
__Lconst                                const        000000
__LcstackBANK0                          cstackBANK0  000000
__LcstackBANK3                          cstackBANK3  000000
__LcstackCOMRAM                         cstackCOMRAM 000000
__Ldata                                 data         000000
__LdataBANK1                            dataBANK1    000000
__LdataBANK2                            dataBANK2    000000
__LdataCOMRAM                           dataCOMRAM   000000
__Leeprom_data                          eeprom_data  000000
__Lfarbss                               farbss       000000
__Lfardata                              fardata      000000
__Libigdata                             ibigdata     000000
__Lidata                                idata        000000
__LidataBANK1                           idataBANK1   000000
__LidataBANK2                           idataBANK2   000000
__LidataCOMRAM                          idataCOMRAM  000000
__Lidloc                                idloc        000000
__Lifardata                             ifardata     000000
__Linit                                 init         00000E
__Lintcode                              intcode      000008
__Lintcode_body                         intcode_body 000000
__Lintcodelo                            intcodelo    00000E
__Lintentry                             intentry     000000
__Lintret                               intret       000000
__Lintsave_regs                         intsave_regs 000000
__Lirdata                               irdata       000000
__Lmediumconst                          mediumconst  0060E6
__LnvFARRAM                             nvFARRAM     000000
__Lnvbit                                nvbit        000000
__Lnvrram                               nvrram       000000
__Lparam                                rparam       000000
__Lpowerup                              powerup      00000E
__Lram                                  ram          000000
__Lramtop                               ramtop       000800
__Lrbit                                 rbit         000000
__Lrbss                                 rbss         000000
__Lrdata                                rdata        000000
__Lreset_vec                            reset_vec    000000
__Lrparam                               rparam       000000
__Lsfr                                  sfr          000000
__Lsmallconst                           smallconst   000000
__Lspace_0                              (abs)        000000
__Lspace_1                              (abs)        000000
__Lspace_2                              (abs)        000000
__Lspace_4                              (abs)        000000
__Lstack                                stack        000000
__Lstruct                               struct       000000
__Ltemp                                 temp         000047
__Ltext                                 text         000000
__Ltext0                                text0        000000
__Ltext1                                text1        000000
__Ltext10                               text10       000000
__Ltext100                              text100      000000
__Ltext101                              text101      000000
__Ltext102                              text102      000000
__Ltext103                              text103      000000
__Ltext104                              text104      000000
__Ltext11                               text11       000000
__Ltext12                               text12       000000
__Ltext13                               text13       000000
__Ltext14                               text14       000000
__Ltext15                               text15       000000
__Ltext16                               text16       000000
__Ltext17                               text17       000000
__Ltext18                               text18       000000
__Ltext19                               text19       000000
__Ltext2                                text2        000000
__Ltext20                               text20       000000
__Ltext21                               text21       000000
__Ltext22                               text22       000000
__Ltext23                               text23       000000
__Ltext24                               text24       000000
__Ltext25                               text25       000000
__Ltext26                               text26       000000
__Ltext27                               text27       000000
__Ltext28                               text28       000000
__Ltext29                               text29       000000
__Ltext3                                text3        000000
__Ltext30                               text30       000000
__Ltext31                               text31       000000
__Ltext32                               text32       000000
__Ltext33                               text33       000000
__Ltext34                               text34       000000
__Ltext35                               text35       000000
__Ltext36                               text36       000000
__Ltext37                               text37       000000
__Ltext38                               text38       000000
__Ltext39                               text39       000000
__Ltext4                                text4        000000
__Ltext40                               text40       000000
__Ltext41                               text41       000000
__Ltext42                               text42       000000
__Ltext43                               text43       000000
__Ltext44                               text44       000000
__Ltext45                               text45       000000
__Ltext46                               text46       000000
__Ltext47                               text47       000000
__Ltext48                               text48       000000
__Ltext49                               text49       000000
__Ltext5                                text5        000000
__Ltext50                               text50       000000
__Ltext51                               text51       000000
__Ltext52                               text52       000000
__Ltext53                               text53       000000
__Ltext54                               text54       000000
__Ltext55                               text55       000000
__Ltext56                               text56       000000
__Ltext57                               text57       000000
__Ltext58                               text58       000000
__Ltext59                               text59       000000
__Ltext6                                text6        000000
__Ltext60                               text60       000000
__Ltext61                               text61       000000
__Ltext62                               text62       000000
__Ltext63                               text63       000000
__Ltext64                               text64       000000
__Ltext65                               text65       000000
__Ltext66                               text66       000000
__Ltext67                               text67       000000
__Ltext68                               text68       000000
__Ltext69                               text69       000000
__Ltext7                                text7        000000
__Ltext70                               text70       000000
__Ltext71                               text71       000000
__Ltext72                               text72       000000
__Ltext73                               text73       000000
__Ltext74                               text74       000000
__Ltext75                               text75       000000
__Ltext76                               text76       000000
__Ltext77                               text77       000000
__Ltext78                               text78       000000
__Ltext79                               text79       000000
__Ltext8                                text8        000000
__Ltext80                               text80       000000
__Ltext81                               text81       000000
__Ltext82                               text82       000000
__Ltext83                               text83       000000
__Ltext84                               text84       000000
__Ltext85                               text85       000000
__Ltext86                               text86       000000
__Ltext87                               text87       000000
__Ltext88                               text88       000000
__Ltext89                               text89       000000
__Ltext9                                text9        000000
__Ltext90                               text90       000000
__Ltext91                               text91       000000
__Ltext92                               text92       000000
__Ltext93                               text93       000000
__Ltext94                               text94       000000
__Ltext95                               text95       000000
__Ltext96                               text96       000000
__Ltext97                               text97       000000
__Ltext99                               text99       000000
__S0                                    (abs)        006280
__S1                                    (abs)        000542
__S2                                    (abs)        000000
__S4                                    (abs)        000000
__S5                                    (abs)        000000
___aldiv                                text31       003FEA
___aldiv@counter                        cstackCOMRAM 000021
___aldiv@dividend                       cstackCOMRAM 000019
___aldiv@divisor                        cstackCOMRAM 00001D
___aldiv@quotient                       cstackCOMRAM 000023
___aldiv@sign                           cstackCOMRAM 000022
___inthi_sp                             stack        000000
___intlo_sp                             stack        000000
___lldiv                                text66       00473A
___lldiv@counter                        cstackCOMRAM 000025
___lldiv@dividend                       cstackCOMRAM 000019
___lldiv@divisor                        cstackCOMRAM 00001D
___lldiv@quotient                       cstackCOMRAM 000021
___llmod                                text37       004A60
___llmod@counter                        cstackCOMRAM 000021
___llmod@dividend                       cstackCOMRAM 000019
___llmod@divisor                        cstackCOMRAM 00001D
___lmul                                 text59       004B7E
___lmul@multiplicand                    cstackCOMRAM 00001D
___lmul@multiplier                      cstackCOMRAM 000019
___lmul@product                         cstackCOMRAM 000021
___lwdiv                                text22       004BD4
___lwdiv@counter                        cstackCOMRAM 00001D
___lwdiv@dividend                       cstackCOMRAM 000019
___lwdiv@divisor                        cstackCOMRAM 00001B
___lwdiv@quotient                       cstackCOMRAM 00001E
___lwmod                                text21       004EC0
___lwmod@counter                        cstackCOMRAM 00001D
___lwmod@dividend                       cstackCOMRAM 000019
___lwmod@divisor                        cstackCOMRAM 00001B
___param_bank                           (abs)        000000
___rparam_used                          (abs)        000001
___sp                                   stack        000000
___wmul                                 text65       005186
___wmul@multiplicand                    cstackCOMRAM 00001B
___wmul@multiplier                      cstackCOMRAM 000019
___wmul@product                         cstackCOMRAM 00001D
__accesstop                             (abs)        000060
__activetblptr                          (abs)        000002
__end_of_GPSDay                         text92       00529C
__end_of_GPSHour                        text91       0051D0
__end_of_GPSMinute                      text90       00527A
__end_of_GPSMonth                       text89       005258
__end_of_GPSRead                        text101      00260A
__end_of_GPSSecond                      text88       005236
__end_of_GPSyear                        text87       005214
__end_of_Latitude                       text25       005428
__end_of_Longitude                      text24       00541E
__end_of___aldiv                        text31       0040B6
__end_of___lldiv                        text66       0047BC
__end_of___llmod                        text37       004AC6
__end_of___lmul                         text59       004BD4
__end_of___lwdiv                        text22       004C26
__end_of___lwmod                        text21       004F02
__end_of___wmul                         text65       0051AC
__end_of__initialization                cinit        0042A4
__end_of_atoi                           text16       003FEA
__end_of_auto_mount                     text47       0011D0
__end_of_check_fs                       text57       00473A
__end_of_clust2sect                     text44       004168
__end_of_command                        text80       004B7E
__end_of_config_timer_dois              text9        0053CC
__end_of_config_timer_zero              text7        00534E
__end_of_configura_baudrate_uart        text30       003E10
__end_of_create_chain                   text62       003464
__end_of_dados_gps_to_sd                text95       004FB8
__end_of_delay                          text56       005318
__end_of_desliga_SPI                    text94       00540A
__end_of_desliga_uart                   text93       0053DA
__end_of_disk_initialize                text49       005186
__end_of_disk_ioctl                     text85       0052DC
__end_of_disk_read                      text76       00498E
__end_of_disk_status                    text70       005086
__end_of_disk_write                     text74       004D18
__end_of_disparo_gravacao               text13       00537A
__end_of_dummy_clocks                   text83       004F7E
__end_of_endereco_cursor_lcd            text53       0049F8
__end_of_escalonador                    text11       00420E
__end_of_escreve_SPI                    text82       0053BE
__end_of_escreve_caractere_lcd          text55       00491E
__end_of_escreve_cmd_lcd                text23       00462E
__end_of_escreve_frase_ram_lcd          text54       004C78
__end_of_escreve_inteiro_lcd            text18       004FEE
__end_of_escrita_sdcard                 text26       0039A4
__end_of_f_close                        text67       005136
__end_of_f_lseek                        text61       00165A
__end_of_f_mount                        text60       004DAA
__end_of_f_open                         text39       002046
__end_of_f_sync                         text68       003AC8
__end_of_f_write                        text36       000C88
__end_of_fix                            text38       005432
__end_of_fprintf                        text33       0019D8
__end_of_fputc                          text35       004F42
__end_of_fputs                          text34       0046B8
__end_of_get_cluster                    text64       002F78
__end_of_get_fattime                    text86       003878
__end_of_inicializa_SPI                 text32       0052BC
__end_of_inicializa_tarefas             text10       004A60
__end_of_inicializa_uart                text29       0051F2
__end_of_init_hardware                  text3        005364
__end_of_init_interrupt                 text6        00538C
__end_of_init_lcd                       text2        004350
__end_of_init_oscilador                 text5        005444
__end_of_init_ports                     text4        005334
__end_of_isdigit                        text17       0052FA
__end_of_isr                            intcode_body 003D04
__end_of_itoa                           text19       005056
__end_of_leitura_SPI                    text84       0053FE
__end_of_main                           text0        0050E0
__end_of_make_dirfile                   text41       003722
__end_of_memcmp                         text58       004512
__end_of_memcpy                         text46       004EC0
__end_of_memset                         text48       00510C
__end_of_mensagem_inicial               text1        0048AC
__end_of_monta_sd                       text96       003F1C
__end_of_move_window                    text73       0032D8
__end_of_next_dir_entry                 text43       0035C8
__end_of_posicao_cursor_lcd             text52       004B24
__end_of_proceed                        text79       0053F2
__end_of_put_cluster                    text63       002D56
__end_of_recebe_dado_uart               text100      00539E
__end_of_remove_chain                   text45       0043EC
__end_of_reserve_direntry               text42       002AF0
__end_of_response                       text78       0053E6
__end_of_sdc_disk_initialize            text50       002346
__end_of_sdc_disk_read                  text77       003BEC
__end_of_sdc_disk_status                text71       0053AE
__end_of_sdc_disk_write                 text75       00312E
__end_of_sdc_reset                      text51       0045A2
__end_of_strcat                         text28       004E7C
__end_of_strcmp                         text103      004D62
__end_of_strcpy                         text27       0050B4
__end_of_stringcpy                      text102      004E38
__end_of_strlen                         text97       005160
__end_of_sync                           text72       004CCA
__end_of_trace_path                     text40       002882
__end_of_troca_de_tela                  text12       001D14
__end_of_utoa                           text20       004480
__end_of_validate                       text69       004DF2
__end_of_verifica_dados_operacionais    text14       00544E
__end_of_verifica_fence_externo         text15       0006FE
__end_of_wait_ready                     text81       005024
__end_of_write_timer_zero               text8        005414
__end_ofi2_write_timer_zero             text99       00543C
__end_ofmensagem_inicial@F3638          mediumconst  006109
__end_ofmensagem_inicial@F3640          mediumconst  0060F8
__initialization                        cinit        00420E
__mediumconst                           mediumconst  0060E6
__pbssBANK0                             bssBANK0     0000F6
__pbssBANK1                             bssBANK1     000100
__pbssBANK2                             bssBANK2     00027A
__pbssBIGRAM                            bssBIGRAM    000322
__pbssCOMRAM                            bssCOMRAM    000033
__pcinit                                cinit        00420E
__pcstackBANK0                          cstackBANK0  000060
__pcstackBANK3                          cstackBANK3  000300
__pcstackCOMRAM                         cstackCOMRAM 000001
__pdataBANK1                            dataBANK1    0001F4
__pdataBANK2                            dataBANK2    000200
__pdataCOMRAM                           dataCOMRAM   000046
__pidataBANK1                           idataBANK1   005444
__pidataBANK2                           idataBANK2   0047BC
__pidataCOMRAM                          idataCOMRAM  00544E
__pintcode                              intcode      000008
__pintcode_body                         intcode_body 003BEC
__pmediumconst                          mediumconst  0060E6
__ptext0                                text0        0050B4
__ptext1                                text1        004836
__ptext10                               text10       0049F8
__ptext100                              text100      00538C
__ptext101                              text101      002346
__ptext102                              text102      004DF2
__ptext103                              text103      004D18
__ptext104                              text104      000000
__ptext11                               text11       004168
__ptext12                               text12       0019D8
__ptext13                               text13       005364
__ptext14                               text14       00544C
__ptext15                               text15       000012
__ptext16                               text16       003F1C
__ptext17                               text17       0052DC
__ptext18                               text18       004FB8
__ptext19                               text19       005024
__ptext2                                text2        0042B2
__ptext20                               text20       0043EC
__ptext21                               text21       004EC0
__ptext22                               text22       004BD4
__ptext23                               text23       0045A2
__ptext24                               text24       005414
__ptext25                               text25       00541E
__ptext26                               text26       003878
__ptext27                               text27       005086
__ptext28                               text28       004E38
__ptext29                               text29       0051D0
__ptext3                                text3        00534E
__ptext30                               text30       003D04
__ptext31                               text31       003FEA
__ptext32                               text32       00529C
__ptext33                               text33       00165A
__ptext34                               text34       00462E
__ptext35                               text35       004F02
__ptext36                               text36       0006FE
__ptext37                               text37       004A60
__ptext38                               text38       005428
__ptext39                               text39       001D14
__ptext4                                text4        005318
__ptext40                               text40       00260A
__ptext41                               text41       0035C8
__ptext42                               text42       002882
__ptext43                               text43       003464
__ptext44                               text44       0040B6
__ptext45                               text45       004350
__ptext46                               text46       004E7C
__ptext47                               text47       000C88
__ptext48                               text48       0050E0
__ptext49                               text49       005160
__ptext5                                text5        00543C
__ptext50                               text50       002046
__ptext51                               text51       004512
__ptext52                               text52       004AC6
__ptext53                               text53       00498E
__ptext54                               text54       004C26
__ptext55                               text55       0048AC
__ptext56                               text56       0052FA
__ptext57                               text57       0046B8
__ptext58                               text58       004480
__ptext59                               text59       004B7E
__ptext6                                text6        00537A
__ptext60                               text60       004D62
__ptext61                               text61       0011D0
__ptext62                               text62       0032D8
__ptext63                               text63       002AF0
__ptext64                               text64       002D56
__ptext65                               text65       005186
__ptext66                               text66       00473A
__ptext67                               text67       00510C
__ptext68                               text68       0039A4
__ptext69                               text69       004DAA
__ptext7                                text7        005334
__ptext70                               text70       005056
__ptext71                               text71       00539E
__ptext72                               text72       004C78
__ptext73                               text73       00312E
__ptext74                               text74       004CCA
__ptext75                               text75       002F78
__ptext76                               text76       00491E
__ptext77                               text77       003AC8
__ptext78                               text78       0053DA
__ptext79                               text79       0053E6
__ptext8                                text8        00540A
__ptext80                               text80       004B24
__ptext81                               text81       004FEE
__ptext82                               text82       0053AE
__ptext83                               text83       004F42
__ptext84                               text84       0053F2
__ptext85                               text85       0052BC
__ptext86                               text86       003722
__ptext87                               text87       0051F2
__ptext88                               text88       005214
__ptext89                               text89       005236
__ptext9                                text9        0053BE
__ptext90                               text90       005258
__ptext91                               text91       0051AC
__ptext92                               text92       00527A
__ptext93                               text93       0053CC
__ptext94                               text94       0053FE
__ptext95                               text95       004F7E
__ptext96                               text96       003E10
__ptext97                               text97       005136
__ptext99                               text99       005432
__ramtop                                ramtop       000800
__size_of_GPSDay                        (abs)        000000
__size_of_GPSHour                       (abs)        000000
__size_of_GPSMinute                     (abs)        000000
__size_of_GPSMonth                      (abs)        000000
__size_of_GPSRead                       (abs)        000000
__size_of_GPSSecond                     (abs)        000000
__size_of_GPSyear                       (abs)        000000
__size_of_Latitude                      (abs)        000000
__size_of_Longitude                     (abs)        000000
__size_of___aldiv                       (abs)        000000
__size_of___lldiv                       (abs)        000000
__size_of___llmod                       (abs)        000000
__size_of___lmul                        (abs)        000000
__size_of___lwdiv                       (abs)        000000
__size_of___lwmod                       (abs)        000000
__size_of___wmul                        (abs)        000000
__size_of_atoi                          (abs)        000000
__size_of_auto_mount                    (abs)        000000
__size_of_check_fs                      (abs)        000000
__size_of_clust2sect                    (abs)        000000
__size_of_command                       (abs)        000000
__size_of_config_timer_dois             (abs)        000000
__size_of_config_timer_zero             (abs)        000000
__size_of_configura_baudrate_uart       (abs)        000000
__size_of_create_chain                  (abs)        000000
__size_of_dados_gps_to_sd               (abs)        000000
__size_of_delay                         (abs)        000000
__size_of_desliga_SPI                   (abs)        000000
__size_of_desliga_uart                  (abs)        000000
__size_of_disk_initialize               (abs)        000000
__size_of_disk_ioctl                    (abs)        000000
__size_of_disk_read                     (abs)        000000
__size_of_disk_status                   (abs)        000000
__size_of_disk_write                    (abs)        000000
__size_of_disparo_gravacao              (abs)        000000
__size_of_dummy_clocks                  (abs)        000000
__size_of_endereco_cursor_lcd           (abs)        000000
__size_of_escalonador                   (abs)        000000
__size_of_escreve_SPI                   (abs)        000000
__size_of_escreve_caractere_lcd         (abs)        000000
__size_of_escreve_cmd_lcd               (abs)        000000
__size_of_escreve_frase_ram_lcd         (abs)        000000
__size_of_escreve_inteiro_lcd           (abs)        000000
__size_of_escrita_sdcard                (abs)        000000
__size_of_f_close                       (abs)        000000
__size_of_f_lseek                       (abs)        000000
__size_of_f_mount                       (abs)        000000
__size_of_f_open                        (abs)        000000
__size_of_f_sync                        (abs)        000000
__size_of_f_write                       (abs)        000000
__size_of_fix                           (abs)        000000
__size_of_fprintf                       (abs)        000000
__size_of_fputc                         (abs)        000000
__size_of_fputs                         (abs)        000000
__size_of_get_cluster                   (abs)        000000
__size_of_get_fattime                   (abs)        000000
__size_of_inicializa_SPI                (abs)        000000
__size_of_inicializa_tarefas            (abs)        000000
__size_of_inicializa_uart               (abs)        000000
__size_of_init_hardware                 (abs)        000000
__size_of_init_interrupt                (abs)        000000
__size_of_init_lcd                      (abs)        000000
__size_of_init_oscilador                (abs)        000000
__size_of_init_ports                    (abs)        000000
__size_of_isdigit                       (abs)        000000
__size_of_isr                           (abs)        000000
__size_of_itoa                          (abs)        000000
__size_of_leitura_SPI                   (abs)        000000
__size_of_main                          (abs)        000000
__size_of_make_dirfile                  (abs)        000000
__size_of_memcmp                        (abs)        000000
__size_of_memcpy                        (abs)        000000
__size_of_memset                        (abs)        000000
__size_of_mensagem_inicial              (abs)        000000
__size_of_monta_sd                      (abs)        000000
__size_of_move_window                   (abs)        000000
__size_of_next_dir_entry                (abs)        000000
__size_of_posicao_cursor_lcd            (abs)        000000
__size_of_proceed                       (abs)        000000
__size_of_put_cluster                   (abs)        000000
__size_of_recebe_dado_uart              (abs)        000000
__size_of_remove_chain                  (abs)        000000
__size_of_reserve_direntry              (abs)        000000
__size_of_response                      (abs)        000000
__size_of_sdc_disk_initialize           (abs)        000000
__size_of_sdc_disk_read                 (abs)        000000
__size_of_sdc_disk_status               (abs)        000000
__size_of_sdc_disk_write                (abs)        000000
__size_of_sdc_reset                     (abs)        000000
__size_of_strcat                        (abs)        000000
__size_of_strcmp                        (abs)        000000
__size_of_strcpy                        (abs)        000000
__size_of_stringcpy                     (abs)        000000
__size_of_strlen                        (abs)        000000
__size_of_sync                          (abs)        000000
__size_of_trace_path                    (abs)        000000
__size_of_troca_de_tela                 (abs)        000000
__size_of_utoa                          (abs)        000000
__size_of_validate                      (abs)        000000
__size_of_verifica_dados_operacionais   (abs)        000000
__size_of_verifica_fence_externo        (abs)        000000
__size_of_wait_ready                    (abs)        000000
__size_of_write_timer_zero              (abs)        000000
__size_ofi2_write_timer_zero            (abs)        000000
__smallconst                            smallconst   000000
_atoi                                   text16       003F1C
_auto_mount                             text47       000C88
_buffer                                 bssBANK1     0001B8
_char_number                            bssCOMRAM    000045
_check_fs                               text57       0046B8
_clust2sect                             text44       0040B6
_command                                text80       004B24
_config_timer_dois                      text9        0053BE
_config_timer_zero                      text7        005334
_configura_baudrate_uart                text30       003D04
_create_chain                           text62       0032D8
_dado_arquivo                           bssBANK2     0002B5
_dados_gps_to_sd                        text95       004F7E
_data_buff                              bssBANK1     00011E
_data_hoje                              bssCOMRAM    000041
_data_uart_recebe                       bssCOMRAM    00003F
_delay                                  text56       0052FA
_desliga_SPI                            text94       0053FE
_desliga_uart                           text93       0053CC
_disk_initialize                        text49       005160
_disk_ioctl                             text85       0052BC
_disk_read                              text76       00491E
_disk_status                            text70       005056
_disk_write                             text74       004CCA
_disparo_gravacao                       text13       005364
_dummy_clocks                           text83       004F42
_endereco_cursor_lcd                    text53       00498E
_escalonador                            text11       004168
_escreve_SPI                            text82       0053AE
_escreve_caractere_lcd                  text55       0048AC
_escreve_cmd_lcd                        text23       0045A2
_escreve_frase_ram_lcd                  text54       004C26
_escreve_inteiro_lcd                    text18       004FB8
_escrita_sdcard                         text26       003878
_estado                                 bssCOMRAM    000040
_f_close                                text67       00510C
_f_lseek                                text61       0011D0
_f_mount                                text60       004D62
_f_open                                 text39       001D14
_f_sync                                 text68       0039A4
_f_write                                text36       0006FE
_fil                                    bssBANK1     00019C
_filename                               bssBANK2     0002C9
_fix                                    text38       005428
_flag                                   bssBANK0     0000F6
_fprintf                                text33       00165A
_fprintf$2131                           cstackBANK3  000312
_fputc                                  text35       004F02
_fputs                                  text34       00462E
_fs                                     bssBIGRAM    000322
_fsid                                   bssBANK1     00011A
_get_cluster                            text64       002D56
_get_fattime                            text86       003722
_inicializa_SPI                         text32       00529C
_inicializa_tarefas                     text10       0049F8
_inicializa_uart                        text29       0051D0
_init_hardware                          text3        00534E
_init_interrupt                         text6        00537A
_init_lcd                               text2        0042B2
_init_oscilador                         text5        00543C
_init_ports                             text4        005318
_isdigit                                text17       0052DC
_isdigit$3080                           cstackCOMRAM 00001A
_isr                                    intcode      000008
_itoa                                   text19       005024
_leitura_SPI                            text84       0053F2
_main                                   text0        0050B4
_make_dirfile                           text41       0035C8
_make_dirfile$1638                      cstackCOMRAM 000025
_memcmp                                 text58       004480
_memcpy                                 text46       004E7C
_memset                                 text48       0050E0
_mensagem_inicial                       text1        004836
_monta_sd                               text96       003E10
_move_window                            text73       00312E
_next_dir_entry                         text43       003464
_p_tarefas                              bssBANK1     000110
_point_buff_gps_lat                     bssCOMRAM    000033
_point_buff_gps_long                    bssBANK0     0000F9
_poligono_ext                           bssBANK1     000120
_posicao_cursor_lcd                     text52       004AC6
_proceed                                text79       0053E6
_put_cluster                            text63       002AF0
_put_cluster$1528                       cstackBANK0  000092
_put_cluster$1529                       cstackBANK0  000094
_rawAltitude                            bssBANK1     0001CF
_rawCourse                              bssBANK1     0001DD
_rawDate                                bssBANK1     0001D6
_rawFix                                 bssBANK1     0001F2
_rawLatitude                            bssBANK2     0002E5
_rawLongitude                           bssBANK2     0002D8
_rawSatellites                          bssBANK1     0001EF
_rawSpeed                               bssBANK1     0001E3
_rawTime                                bssBANK1     0001C4
_recebe_dado_uart                       text100      00538C
_remove_chain                           text45       004350
_reserve_direntry                       text42       002882
_response                               text78       0053DA
_sdc_disk_initialize                    text50       002046
_sdc_disk_read                          text77       003AC8
_sdc_disk_status                        text71       00539E
_sdc_disk_write                         text75       002F78
_sdc_reset                              text51       004512
_sentence                               bssBANK1     0001E9
_sinaliza_int_timer                     bssCOMRAM    00003E
_strcat                                 text28       004E38
_strcmp                                 text103      004D18
_strcpy                                 text27       005086
_string_dado                            bssBANK2     00027A
_stringcpy                              text102      004DF2
_strlen                                 text97       005136
_sync                                   text72       004C78
_tarefa_em_execucao                     bssCOMRAM    00003D
_tempo_backup                           bssBANK1     000108
_tempo_tarefa                           bssBANK1     000100
_time_atualizacao                       bssCOMRAM    000035
_time_sd                                bssCOMRAM    000037
_timeout_tarefa                         bssBANK1     000118
_trace_path                             text40       00260A
_trace_path$1685                        cstackBANK0  0000B0
_trace_path$1687                        cstackBANK0  0000B2
_troca_de_tela                          text12       0019D8
_utoa                                   text20       0043EC
_validate                               text69       004DAA
_verifica_dados_operacionais            text14       00544C
_verifica_fence_externo                 text15       000012
_wait_ready                             text81       004FEE
_write_timer_zero                       text8        00540A
atoi@a                                  cstackCOMRAM 000024
atoi@s                                  cstackCOMRAM 00001F
atoi@sign                               cstackCOMRAM 000023
auto_mount@bootsect                     cstackBANK0  000095
auto_mount@chk_wp                       cstackBANK0  00007A
auto_mount@fatsize                      cstackBANK0  0000A1
auto_mount@fmt                          cstackBANK0  00009F
auto_mount@fs                           cstackBANK0  0000A5
auto_mount@maxclust                     cstackBANK0  000091
auto_mount@p                            cstackBANK0  00009D
auto_mount@path                         cstackBANK0  000079
auto_mount@stat                         cstackBANK0  0000A0
auto_mount@totalsect                    cstackBANK0  000099
btemp                                   temp         000047
check_fs@fs                             cstackBANK0  000077
check_fs@sect                           cstackBANK0  000073
clust2sect@clust                        cstackCOMRAM 000025
clust2sect@fs                           cstackCOMRAM 00002E
command@CMD                             cstackCOMRAM 000023
command@CRC                             cstackCOMRAM 000022
command@arg                             cstackCOMRAM 00001E
command@argument                        cstackCOMRAM 000024
configura_baudrate_uart@baudrate        cstackCOMRAM 000027
configura_baudrate_uart@x               cstackBANK0  000060
create_chain@clust                      cstackBANK0  0000A0
create_chain@cstat                      cstackBANK0  0000A8
create_chain@fs                         cstackBANK0  0000A6
create_chain@mcl                        cstackBANK0  0000A4
create_chain@ncl                        cstackBANK0  0000AC
create_chain@scl                        cstackBANK0  0000AA
delay@contador_ext                      cstackCOMRAM 000019
delay@contador_int                      cstackCOMRAM 00001A
disk_initialize@pdrv                    cstackCOMRAM 00002D
disk_initialize@stat                    cstackCOMRAM 00002E
disk_ioctl@buff                         cstackCOMRAM 00001A
disk_ioctl@cmd                          cstackCOMRAM 000019
disk_ioctl@pdrv                         cstackCOMRAM 00001C
disk_ioctl@res                          cstackCOMRAM 00001D
disk_read@buff                          cstackBANK0  000068
disk_read@count                         cstackBANK0  00006E
disk_read@pdrv                          cstackBANK0  00006F
disk_read@res                           cstackBANK0  000072
disk_read@result                        cstackBANK0  000070
disk_read@sector                        cstackBANK0  00006A
disk_status@pdrv                        cstackCOMRAM 00001D
disk_status@stat                        cstackCOMRAM 00001E
disk_write@buff                         cstackBANK0  000068
disk_write@count                        cstackBANK0  00006E
disk_write@pdrv                         cstackBANK0  00006F
disk_write@res                          cstackBANK0  000072
disk_write@result                       cstackBANK0  000070
disk_write@sector                       cstackBANK0  00006A
dummy_clocks@i                          cstackCOMRAM 00001C
dummy_clocks@n                          cstackCOMRAM 00001B
end_of_initialization                   cinit        0042A4
endereco_cursor_lcd@endereco            cstackCOMRAM 00001B
escalonador@cont                        cstackBANK0  0000F5
escreve_SPI@dado                        cstackCOMRAM 00001A
escreve_caractere_lcd@data              cstackCOMRAM 00001B
escreve_cmd_lcd@comando                 cstackCOMRAM 00001B
escreve_frase_ram_lcd@buffer            cstackCOMRAM 00001C
escreve_inteiro_lcd@F3223               dataBANK1    0001F4
escreve_inteiro_lcd@texto               cstackBANK0  000060
escreve_inteiro_lcd@valor               cstackCOMRAM 00002E
escrita_sdcard@f_fix                    bssBANK0     0000FD
escrita_sdcard@fix_gps                  cstackBANK0  0000F1
f_close@fp                              cstackBANK0  000091
f_close@res                             cstackBANK0  000093
f_lseek@clust                           cstackBANK0  0000CD
f_lseek@csize                           cstackBANK0  0000C9
f_lseek@fp                              cstackBANK0  0000AE
f_lseek@ifptr                           cstackBANK0  0000C5
f_lseek@ofs                             cstackBANK0  0000B0
f_lseek@res                             cstackBANK0  0000C4
f_mount@drv                             cstackCOMRAM 00001B
f_mount@fs                              cstackCOMRAM 000019
f_open@dir                              cstackBANK0  0000DC
f_open@dj                               cstackBANK0  0000DE
f_open@dw                               cstackBANK0  0000D7
f_open@fn                               cstackBANK0  0000C9
f_open@fp                               cstackBANK0  0000C0
f_open@mode                             cstackBANK0  0000C4
f_open@path                             cstackBANK0  0000C2
f_open@res                              cstackBANK0  0000DB
f_open@rs                               cstackBANK0  0000D5
f_sync@dir                              cstackBANK0  00008F
f_sync@fp                               cstackBANK0  000088
f_sync@res                              cstackBANK0  00008E
f_sync@tim                              cstackBANK0  00008A
f_write@btw                             cstackBANK0  0000B1
f_write@buff                            cstackBANK0  0000B0
f_write@bw                              cstackBANK0  0000B3
f_write@cc                              cstackBANK0  0000C6
f_write@clust                           cstackBANK0  0000C8
f_write@fp                              cstackBANK0  0000AE
f_write@res                             cstackBANK0  0000C0
f_write@sect                            cstackBANK0  0000C2
f_write@wbuff                           cstackBANK0  0000C1
f_write@wcnt                            cstackBANK0  0000CA
fprintf@arp                             cstackBANK3  00031C
fprintf@c                               cstackBANK3  000321
fprintf@cc                              cstackBANK3  00031D
fprintf@f                               cstackBANK3  000316
fprintf@fil                             cstackBANK0  0000DA
fprintf@i                               cstackBANK3  00031F
fprintf@r                               cstackBANK3  000317
fprintf@res                             cstackBANK3  000310
fprintf@s                               cstackBANK3  000300
fprintf@str                             cstackBANK0  0000DC
fprintf@val                             cstackBANK3  000318
fprintf@w                               cstackBANK3  000314
fputc@bw                                cstackBANK0  0000D1
fputc@c                                 cstackBANK0  0000D0
fputc@chr                               cstackBANK0  0000CC
fputc@fil                               cstackBANK0  0000CE
fputs@fil                               cstackBANK0  0000D5
fputs@n                                 cstackBANK0  0000D8
fputs@str                               cstackBANK0  0000D3
get_cluster@bc                          cstackBANK0  000097
get_cluster@clust                       cstackCOMRAM 000031
get_cluster@fatsect                     cstackBANK0  000093
get_cluster@fs                          cstackBANK0  000099
get_cluster@wc                          cstackBANK0  000091
get_fattime@f_time                      cstackCOMRAM 000021
i2_write_timer_zero                     text99       005432
i2write_timer_zero@timer0               cstackCOMRAM 000001
int$flags                               temp         000047
int_func                                intcode_body 003BEC
intlevel0                               text         000000
intlevel1                               text         000000
intlevel2                               text         000000
intlevel3                               text         000000
isdigit@c                               cstackCOMRAM 00001B
isr@cont                                cstackCOMRAM 000018
itoa@base                               cstackCOMRAM 00002B
itoa@buf                                cstackCOMRAM 000028
itoa@val                                cstackCOMRAM 000029
make_dirfile@a                          cstackCOMRAM 000029
make_dirfile@b                          cstackCOMRAM 000027
make_dirfile@c                          cstackCOMRAM 00002B
make_dirfile@dirname                    cstackCOMRAM 000022
make_dirfile@n                          cstackCOMRAM 00002A
make_dirfile@path                       cstackCOMRAM 000021
make_dirfile@t                          cstackCOMRAM 000028
memcmp@n                                cstackCOMRAM 00001D
memcmp@s1                               cstackCOMRAM 000019
memcmp@s2                               cstackCOMRAM 00001B
memcpy@d                                cstackCOMRAM 000020
memcpy@d1                               cstackCOMRAM 000019
memcpy@n                                cstackCOMRAM 00001D
memcpy@s                                cstackCOMRAM 000022
memcpy@s1                               cstackCOMRAM 00001B
memcpy@tmp                              cstackCOMRAM 00001F
memset@c                                cstackCOMRAM 00001B
memset@n                                cstackCOMRAM 00001D
memset@p                                cstackCOMRAM 00001F
memset@p1                               cstackCOMRAM 000019
mensagem_inicial@F3638                  mediumconst  0060F8
mensagem_inicial@F3640                  mediumconst  0060E7
mensagem_inicial@msg_dois               cstackBANK0  000071
mensagem_inicial@msg_linha_um           cstackBANK0  000060
monta_sd@dado                           cstackCOMRAM 00001D
monta_sd@i                              cstackCOMRAM 000021
monta_sd@index                          cstackCOMRAM 00001F
monta_sd@size                           cstackCOMRAM 000020
move_window@fs                          cstackBANK0  000086
move_window@n                           cstackBANK0  000081
move_window@sector                      cstackBANK0  000073
move_window@wsect                       cstackBANK0  000082
next_dir_entry@clust                    cstackBANK0  0000A3
next_dir_entry@dj                       cstackBANK0  00009B
next_dir_entry@idx                      cstackBANK0  0000A5
posicao_cursor_lcd@coluna               cstackCOMRAM 00001C
posicao_cursor_lcd@endereco             cstackCOMRAM 00001E
posicao_cursor_lcd@linha                cstackCOMRAM 00001D
put_cluster@bc                          cstackBANK0  00009A
put_cluster@clust                       cstackBANK0  000088
put_cluster@fatsect                     cstackBANK0  000096
put_cluster@fs                          cstackBANK0  00009E
put_cluster@p                           cstackBANK0  00009C
put_cluster@val                         cstackBANK0  00008A
remove_chain@clust                      cstackBANK0  0000A0
remove_chain@fs                         cstackBANK0  0000A6
remove_chain@nxt                        cstackBANK0  0000A4
reserve_direntry@c                      cstackBANK0  0000BB
reserve_direntry@clust                  cstackBANK0  0000BC
reserve_direntry@dir                    cstackBANK0  0000AF
reserve_direntry@dj                     cstackBANK0  0000AE
reserve_direntry@dptr                   cstackBANK0  0000B9
reserve_direntry@fs                     cstackBANK0  0000BE
reserve_direntry@n                      cstackBANK0  0000B8
reserve_direntry@sector                 cstackBANK0  0000B4
response@buff                           cstackCOMRAM 000019
sdc_disk_initialize@buff                cstackBANK0  00006B
sdc_disk_initialize@buff_i              cstackBANK0  000067
sdc_disk_initialize@count1              cstackBANK0  000063
sdc_disk_initialize@count2              cstackBANK0  000069
sdc_disk_initialize@crc_number          cstackBANK0  000065
sdc_disk_initialize@ocr                 cstackBANK0  000068
sdc_disk_initialize@stat                cstackBANK0  000062
sdc_disk_read@buff                      cstackBANK0  000067
sdc_disk_read@count                     cstackCOMRAM 00002B
sdc_disk_read@length                    cstackBANK0  000065
sdc_disk_read@p_buff                    cstackCOMRAM 000025
sdc_disk_read@sector                    cstackCOMRAM 000027
sdc_disk_read@start_add                 cstackBANK0  000061
sdc_disk_status@pdrv                    cstackCOMRAM 00001A
sdc_disk_write@buff                     cstackBANK0  000067
sdc_disk_write@count                    cstackCOMRAM 00002B
sdc_disk_write@count1                   cstackBANK0  000062
sdc_disk_write@j                        cstackBANK0  000065
sdc_disk_write@p_buff                   cstackCOMRAM 000025
sdc_disk_write@res                      cstackBANK0  000064
sdc_disk_write@sector                   cstackCOMRAM 000027
sdc_reset@buff                          cstackCOMRAM 00002B
sdc_reset@count                         cstackCOMRAM 000029
sdc_reset@count_nosd                    cstackCOMRAM 000027
stackhi                                 (abs)        0007FF
stacklo                                 (abs)        000542
start                                   init         00000E
start_initialization                    cinit        00420E
strcat@cp                               cstackCOMRAM 00001D
strcat@from                             cstackCOMRAM 00001B
strcat@to                               cstackCOMRAM 000019
strcmp@r                                cstackCOMRAM 000007
strcmp@s1                               cstackCOMRAM 000001
strcmp@s2                               cstackCOMRAM 000003
strcpy@cp                               cstackCOMRAM 00001D
strcpy@from                             cstackCOMRAM 00001B
strcpy@to                               cstackCOMRAM 000019
stringcpy@chr                           cstackCOMRAM 000009
stringcpy@dir                           cstackCOMRAM 000005
stringcpy@str1                          cstackCOMRAM 000001
stringcpy@str2                          cstackCOMRAM 000003
strlen@cp                               cstackCOMRAM 00001B
strlen@s                                cstackCOMRAM 000019
sync@fs                                 cstackCOMRAM 000031
trace_path@clust                        cstackBANK0  0000B6
trace_path@dir                          cstackBANK0  0000AB
trace_path@dj                           cstackBANK0  0000A7
trace_path@dptr                         cstackBANK0  0000B9
trace_path@ds                           cstackBANK0  0000B8
trace_path@fn                           cstackBANK0  0000A8
trace_path@fs                           cstackBANK0  0000B4
trace_path@path                         cstackBANK0  0000A9
troca_de_tela@last_state                bssCOMRAM    00003B
troca_de_tela@state                     bssCOMRAM    00003C
ttemp5                                  temp         000048
ttemp6                                  temp         00004B
ttemp7                                  temp         00004F
utoa@base                               cstackCOMRAM 000023
utoa@buf                                cstackCOMRAM 000020
utoa@c                                  cstackCOMRAM 000027
utoa@v                                  cstackCOMRAM 000025
utoa@val                                cstackCOMRAM 000021
validate@fs                             cstackCOMRAM 00001F
validate@id                             cstackCOMRAM 000021
verifica_fence_externo@F3645            dataBANK2    000230
verifica_fence_externo@F3648            dataBANK2    000200
verifica_fence_externo@F3660            dataBANK2    000268
verifica_fence_externo@F3662            dataBANK2    00025C
verifica_fence_externo@count            cstackBANK0  0000DE
verifica_fence_externo@fence_diff_lat   cstackBANK0  000090
verifica_fence_externo@fence_diff_long  cstackBANK0  000060
verifica_fence_externo@i                cstackBANK0  0000E0
verifica_fence_externo@j                cstackBANK0  0000DD
verifica_fence_externo@point            cstackBANK0  0000DF
verifica_fence_externo@point_index_lat  cstackBANK0  0000DB
verifica_fence_externo@point_index_long cstackBANK0  0000DC
verifica_fence_externo@temp_buff_lat    cstackBANK0  0000C8
verifica_fence_externo@temp_buff_long   cstackBANK0  0000BC
verifica_fence_externo@temp_var_deg     cstackBANK0  0000D7
wait_ready@res                          cstackCOMRAM 00001D
wait_ready@timeout                      cstackCOMRAM 000019
write_timer_zero@timer0                 cstackCOMRAM 000019
wtemp8                                  temp         000048


FUNCTION INFORMATION:

 *************** function _main *****************
 Defined at:
		line 218 in file "main.c"
 Parameters:    Size  Location     Type
		None
 Auto vars:     Size  Location     Type
		None
 Return value:  Size  Location     Type
                  1    wreg      void 
 Registers used:
		wreg, fsr1l, fsr1h, fsr2l, fsr2h, status,2, status,0, pclath, tosl, tblptrl, tblptrh, tblptru, prodl, prodh, cstack
 Tracked objects:
		On entry : 
		On exit  : 
		Unchanged: 
 Data sizes:     COMRAM   BANK0   BANK1   BANK2   BANK3   BANK4   BANK5   BANK6   BANK7
      Params:         0       0       0       0       0       0       0       0       0
      Locals:         0       0       0       0       0       0       0       0       0
      Temps:          0       0       0       0       0       0       0       0       0
      Totals:         0       0       0       0       0       0       0       0       0
Total ram usage:        0 bytes
 Hardware stack levels required when called:   18
 This function calls:
		_dados_gps_to_sd
		_escalonador
		_inicializa_tarefas
		_inicializa_uart
		_init_hardware
		_init_lcd
		_mensagem_inicial
 This function is called by:
		Startup code after reset
 This function uses a non-reentrant model


 *************** function _mensagem_inicial *****************
 Defined at:
		line 246 in file "main.c"
 Parameters:    Size  Location     Type
		None
 Auto vars:     Size  Location     Type
  msg_dois       17   17[BANK0 ] const unsigned char [17]
  msg_linha_um   17    0[BANK0 ] const unsigned char [17]
 Return value:  Size  Location     Type
                  1    wreg      void 
 Registers used:
		wreg, fsr1l, fsr1h, fsr2l, fsr2h, status,2, status,0, tblptrl, tblptrh, tblptru, cstack
 Tracked objects:
		On entry : 
		On exit  : 
		Unchanged: 
 Data sizes:     COMRAM   BANK0   BANK1   BANK2   BANK3   BANK4   BANK5   BANK6   BANK7
      Params:         0       0       0       0       0       0       0       0       0
      Locals:         0      34       0       0       0       0       0       0       0
      Temps:          2       0       0       0       0       0       0       0       0
      Totals:         2      34       0       0       0       0       0       0       0
Total ram usage:       36 bytes
 Hardware stack levels used:    1
 Hardware stack levels required when called:    6
 This function calls:
		_escreve_cmd_lcd
		_escreve_frase_ram_lcd
		_posicao_cursor_lcd
 This function is called by:
		_main
 This function uses a non-reentrant model


 *************** function _init_lcd *****************
 Defined at:
		line 71 in file "bibliotecas/display_lcd.c"
 Parameters:    Size  Location     Type
		None
 Auto vars:     Size  Location     Type
		None
 Return value:  Size  Location     Type
                  1    wreg      void 
 Registers used:
		wreg, status,2, status,0, cstack
 Tracked objects:
		On entry : 
		On exit  : 
		Unchanged: 
 Data sizes:     COMRAM   BANK0   BANK1   BANK2   BANK3   BANK4   BANK5   BANK6   BANK7
      Params:         0       0       0       0       0       0       0       0       0
      Locals:         0       0       0       0       0       0       0       0       0
      Temps:          1       0       0       0       0       0       0       0       0
      Totals:         1       0       0       0       0       0       0       0       0
Total ram usage:        1 bytes
 Hardware stack levels used:    1
 Hardware stack levels required when called:    5
 This function calls:
		_delay
		_escreve_cmd_lcd
 This function is called by:
		_main
 This function uses a non-reentrant model


 *************** function _init_hardware *****************
 Defined at:
		line 52 in file "bibliotecas/hardware.c"
 Parameters:    Size  Location     Type
		None
 Auto vars:     Size  Location     Type
		None
 Return value:  Size  Location     Type
                  1    wreg      void 
 Registers used:
		wreg, status,2, cstack
 Tracked objects:
		On entry : 
		On exit  : 
		Unchanged: 
 Data sizes:     COMRAM   BANK0   BANK1   BANK2   BANK3   BANK4   BANK5   BANK6   BANK7
      Params:         0       0       0       0       0       0       0       0       0
      Locals:         0       0       0       0       0       0       0       0       0
      Temps:          0       0       0       0       0       0       0       0       0
      Totals:         0       0       0       0       0       0       0       0       0
Total ram usage:        0 bytes
 Hardware stack levels used:    1
 Hardware stack levels required when called:    5
 This function calls:
		_config_timer_dois
		_config_timer_zero
		_init_interrupt
		_init_oscilador
		_init_ports
 This function is called by:
		_main
 This function uses a non-reentrant model


 *************** function _init_ports *****************
 Defined at:
		line 151 in file "bibliotecas/hardware.c"
 Parameters:    Size  Location     Type
		None
 Auto vars:     Size  Location     Type
		None
 Return value:  Size  Location     Type
                  1    wreg      void 
 Registers used:
		wreg, status,2
 Tracked objects:
		On entry : 
		On exit  : 
		Unchanged: 
 Data sizes:     COMRAM   BANK0   BANK1   BANK2   BANK3   BANK4   BANK5   BANK6   BANK7
      Params:         0       0       0       0       0       0       0       0       0
      Locals:         0       0       0       0       0       0       0       0       0
      Temps:          0       0       0       0       0       0       0       0       0
      Totals:         0       0       0       0       0       0       0       0       0
Total ram usage:        0 bytes
 Hardware stack levels used:    1
 Hardware stack levels required when called:    3
 This function calls:
		Nothing
 This function is called by:
		_init_hardware
 This function uses a non-reentrant model


 *************** function _init_oscilador *****************
 Defined at:
		line 169 in file "bibliotecas/hardware.c"
 Parameters:    Size  Location     Type
		None
 Auto vars:     Size  Location     Type
		None
 Return value:  Size  Location     Type
                  1    wreg      void 
 Registers used:
		None
 Tracked objects:
		On entry : 
		On exit  : 
		Unchanged: 
 Data sizes:     COMRAM   BANK0   BANK1   BANK2   BANK3   BANK4   BANK5   BANK6   BANK7
      Params:         0       0       0       0       0       0       0       0       0
      Locals:         0       0       0       0       0       0       0       0       0
      Temps:          0       0       0       0       0       0       0       0       0
      Totals:         0       0       0       0       0       0       0       0       0
Total ram usage:        0 bytes
 Hardware stack levels used:    1
 Hardware stack levels required when called:    3
 This function calls:
		Nothing
 This function is called by:
		_init_hardware
 This function uses a non-reentrant model


 *************** function _init_interrupt *****************
 Defined at:
		line 94 in file "bibliotecas/hardware.c"
 Parameters:    Size  Location     Type
		None
 Auto vars:     Size  Location     Type
		None
 Return value:  Size  Location     Type
                  1    wreg      void 
 Registers used:
		wreg, status,2
 Tracked objects:
		On entry : 
		On exit  : 
		Unchanged: 
 Data sizes:     COMRAM   BANK0   BANK1   BANK2   BANK3   BANK4   BANK5   BANK6   BANK7
      Params:         0       0       0       0       0       0       0       0       0
      Locals:         0       0       0       0       0       0       0       0       0
      Temps:          0       0       0       0       0       0       0       0       0
      Totals:         0       0       0       0       0       0       0       0       0
Total ram usage:        0 bytes
 Hardware stack levels used:    1
 Hardware stack levels required when called:    3
 This function calls:
		Nothing
 This function is called by:
		_init_hardware
 This function uses a non-reentrant model


 *************** function _config_timer_zero *****************
 Defined at:
		line 79 in file "bibliotecas/hardware.c"
 Parameters:    Size  Location     Type
		None
 Auto vars:     Size  Location     Type
		None
 Return value:  Size  Location     Type
                  1    wreg      void 
 Registers used:
		wreg, status,2, cstack
 Tracked objects:
		On entry : 
		On exit  : 
		Unchanged: 
 Data sizes:     COMRAM   BANK0   BANK1   BANK2   BANK3   BANK4   BANK5   BANK6   BANK7
      Params:         0       0       0       0       0       0       0       0       0
      Locals:         0       0       0       0       0       0       0       0       0
      Temps:          0       0       0       0       0       0       0       0       0
      Totals:         0       0       0       0       0       0       0       0       0
Total ram usage:        0 bytes
 Hardware stack levels used:    1
 Hardware stack levels required when called:    4
 This function calls:
		_write_timer_zero
 This function is called by:
		_init_hardware
 This function uses a non-reentrant model


 *************** function _write_timer_zero *****************
 Defined at:
		line 134 in file "bibliotecas/hardware.c"
 Parameters:    Size  Location     Type
  timer0          2   24[COMRAM] unsigned int 
 Auto vars:     Size  Location     Type
		None
 Return value:  Size  Location     Type
                  1    wreg      void 
 Registers used:
		None
 Tracked objects:
		On entry : 
		On exit  : 
		Unchanged: 
 Data sizes:     COMRAM   BANK0   BANK1   BANK2   BANK3   BANK4   BANK5   BANK6   BANK7
      Params:         2       0       0       0       0       0       0       0       0
      Locals:         0       0       0       0       0       0       0       0       0
      Temps:          0       0       0       0       0       0       0       0       0
      Totals:         2       0       0       0       0       0       0       0       0
Total ram usage:        2 bytes
 Hardware stack levels used:    1
 Hardware stack levels required when called:    3
 This function calls:
		Nothing
 This function is called by:
		_config_timer_zero
 This function uses a non-reentrant model


 *************** function _config_timer_dois *****************
 Defined at:
		line 198 in file "bibliotecas/hardware.c"
 Parameters:    Size  Location     Type
		None
 Auto vars:     Size  Location     Type
		None
 Return value:  Size  Location     Type
                  1    wreg      void 
 Registers used:
		wreg, status,2
 Tracked objects:
		On entry : 
		On exit  : 
		Unchanged: 
 Data sizes:     COMRAM   BANK0   BANK1   BANK2   BANK3   BANK4   BANK5   BANK6   BANK7
      Params:         0       0       0       0       0       0       0       0       0
      Locals:         0       0       0       0       0       0       0       0       0
      Temps:          0       0       0       0       0       0       0       0       0
      Totals:         0       0       0       0       0       0       0       0       0
Total ram usage:        0 bytes
 Hardware stack levels used:    1
 Hardware stack levels required when called:    3
 This function calls:
		Nothing
 This function is called by:
		_init_hardware
 This function uses a non-reentrant model


 *************** function _inicializa_tarefas *****************
 Defined at:
		line 165 in file "main.c"
 Parameters:    Size  Location     Type
		None
 Auto vars:     Size  Location     Type
		None
 Return value:  Size  Location     Type
                  1    wreg      void 
 Registers used:
		wreg, status,2, status,0
 Tracked objects:
		On entry : 
		On exit  : 
		Unchanged: 
 Data sizes:     COMRAM   BANK0   BANK1   BANK2   BANK3   BANK4   BANK5   BANK6   BANK7
      Params:         0       0       0       0       0       0       0       0       0
      Locals:         0       0       0       0       0       0       0       0       0
      Temps:          0       0       0       0       0       0       0       0       0
      Totals:         0       0       0       0       0       0       0       0       0
Total ram usage:        0 bytes
 Hardware stack levels used:    1
 Hardware stack levels required when called:    3
 This function calls:
		Nothing
 This function is called by:
		_main
 This function uses a non-reentrant model


 *************** function _escalonador *****************
 Defined at:
		line 197 in file "main.c"
 Parameters:    Size  Location     Type
		None
 Auto vars:     Size  Location     Type
  cont            1  149[BANK0 ] unsigned char 
 Return value:  Size  Location     Type
                  1    wreg      void 
 Registers used:
		wreg, fsr1l, fsr1h, fsr2l, fsr2h, status,2, status,0, pclath, tosl, tblptrl, tblptrh, tblptru, prodl, prodh, cstack
 Tracked objects:
		On entry : 
		On exit  : 
		Unchanged: 
 Data sizes:     COMRAM   BANK0   BANK1   BANK2   BANK3   BANK4   BANK5   BANK6   BANK7
      Params:         0       0       0       0       0       0       0       0       0
      Locals:         0       1       0       0       0       0       0       0       0
      Temps:          0       2       0       0       0       0       0       0       0
      Totals:         0       3       0       0       0       0       0       0       0
Total ram usage:        3 bytes
 Hardware stack levels used:    1
 Hardware stack levels required when called:   17
 This function calls:
		_disparo_gravacao
		_troca_de_tela
		_verifica_dados_operacionais
		_verifica_fence_externo
 This function is called by:
		_main
 This function uses a non-reentrant model


 *************** function _troca_de_tela *****************
 Defined at:
		line 617 in file "main.c"
 Parameters:    Size  Location     Type
		None
 Auto vars:     Size  Location     Type
		None
 Return value:  Size  Location     Type
                  1    wreg      void 
 Registers used:
		wreg, fsr1l, fsr1h, fsr2l, fsr2h, status,2, status,0, tblptrl, tblptrh, tblptru, cstack
 Tracked objects:
		On entry : 
		On exit  : 
		Unchanged: 
 Data sizes:     COMRAM   BANK0   BANK1   BANK2   BANK3   BANK4   BANK5   BANK6   BANK7
      Params:         0       0       0       0       0       0       0       0       0
      Locals:         0       0       0       0       0       0       0       0       0
      Temps:          2       0       0       0       0       0       0       0       0
      Totals:         2       0       0       0       0       0       0       0       0
Total ram usage:        2 bytes
 Hardware stack levels used:    1
 Hardware stack levels required when called:    7
 This function calls:
		_Latitude
		_Longitude
		_escreve_cmd_lcd
		_escreve_frase_ram_lcd
		_escreve_inteiro_lcd
		_fix
		_posicao_cursor_lcd
 This function is called by:
		_inicializa_tarefas
		_escalonador
 This function uses a non-reentrant model


 *************** function _disparo_gravacao *****************
 Defined at:
		line 596 in file "main.c"
 Parameters:    Size  Location     Type
		None
 Auto vars:     Size  Location     Type
		None
 Return value:  Size  Location     Type
                  1    wreg      void 
 Registers used:
		wreg, fsr1l, fsr1h, fsr2l, fsr2h, status,2, status,0, tblptrl, tblptrh, tblptru, prodl, prodh, cstack
 Tracked objects:
		On entry : 
		On exit  : 
		Unchanged: 
 Data sizes:     COMRAM   BANK0   BANK1   BANK2   BANK3   BANK4   BANK5   BANK6   BANK7
      Params:         0       0       0       0       0       0       0       0       0
      Locals:         0       0       0       0       0       0       0       0       0
      Temps:          0       0       0       0       0       0       0       0       0
      Totals:         0       0       0       0       0       0       0       0       0
Total ram usage:        0 bytes
 Hardware stack levels used:    1
 Hardware stack levels required when called:   16
 This function calls:
		_escrita_sdcard
 This function is called by:
		_inicializa_tarefas
		_escalonador
 This function uses a non-reentrant model


 *************** function _verifica_dados_operacionais *****************
 Defined at:
		line 577 in file "main.c"
 Parameters:    Size  Location     Type
		None
 Auto vars:     Size  Location     Type
		None
 Return value:  Size  Location     Type
                  1    wreg      void 
 Registers used:
		None
 Tracked objects:
		On entry : 
		On exit  : 
		Unchanged: 
 Data sizes:     COMRAM   BANK0   BANK1   BANK2   BANK3   BANK4   BANK5   BANK6   BANK7
      Params:         0       0       0       0       0       0       0       0       0
      Locals:         0       0       0       0       0       0       0       0       0
      Temps:          0       0       0       0       0       0       0       0       0
      Totals:         0       0       0       0       0       0       0       0       0
Total ram usage:        0 bytes
 Hardware stack levels used:    1
 Hardware stack levels required when called:    3
 This function calls:
		Nothing
 This function is called by:
		_inicializa_tarefas
		_escalonador
 This function uses a non-reentrant model


 *************** function _verifica_fence_externo *****************
 Defined at:
		line 269 in file "main.c"
 Parameters:    Size  Location     Type
		None
 Auto vars:     Size  Location     Type
  fence_diff_l   48    0[BANK0 ] unsigned char [12][4]
  fence_diff_l   44   48[BANK0 ] unsigned char [11][4]
  temp_buff_lo   12   92[BANK0 ] unsigned char [12]
  temp_buff_la   11  104[BANK0 ] unsigned char [11]
  temp_var_deg    4  119[BANK0 ] unsigned long 
  p_buff_gps_l    2    0        PTR unsigned char 
		 -> rawLongitude(13), 
  p_buff_gps_l    2    0        PTR unsigned char 
		 -> rawLatitude(13), 
  i               1  128[BANK0 ] unsigned char 
  point           1  127[BANK0 ] unsigned char 
  count           1  126[BANK0 ] unsigned char 
  j               1  125[BANK0 ] unsigned char 
  point_index_    1  124[BANK0 ] unsigned char 
  point_index_    1  123[BANK0 ] unsigned char 
  count_index     1    0        unsigned char 
 Return value:  Size  Location     Type
                  1    wreg      void 
 Registers used:
		wreg, fsr1l, fsr1h, fsr2l, fsr2h, status,2, status,0, prodl, prodh, cstack
 Tracked objects:
		On entry : 
		On exit  : 
		Unchanged: 
 Data sizes:     COMRAM   BANK0   BANK1   BANK2   BANK3   BANK4   BANK5   BANK6   BANK7
      Params:         0       0       0       0       0       0       0       0       0
      Locals:         0     129       0       0       0       0       0       0       0
      Temps:          6       0       0       0       0       0       0       0       0
      Totals:         6     129       0       0       0       0       0       0       0
Total ram usage:      135 bytes
 Hardware stack levels used:    1
 Hardware stack levels required when called:    5
 This function calls:
		_Latitude
		_Longitude
		_atoi
 This function is called by:
		_inicializa_tarefas
		_escalonador
 This function uses a non-reentrant model


 *************** function _atoi *****************
 Defined at:
		line 5 in file "C:\Program Files\Microchip\xc8\v2.30\pic\sources\c90\common\atoi.c"
 Parameters:    Size  Location     Type
  s               2   30[COMRAM] PTR const unsigned char 
		 -> poligono_ext.point_long_min(6), poligono_ext.fence_long_min(6), poligono_ext.point_lat_min(6), poligono_ext.fence_lat_min(6), 
		 -> poligono_ext.fence_lat_deg(5), poligono_ext.point_lat_deg(5), poligono_ext.fence_long_deg(6), poligono_ext.point_long_deg(6), 
		 -> poligono_ext(124), 
 Auto vars:     Size  Location     Type
  a               2   35[COMRAM] int 
  sign            1   34[COMRAM] unsigned char 
 Return value:  Size  Location     Type
                  2   30[COMRAM] int 
 Registers used:
		wreg, fsr2l, fsr2h, status,2, status,0, prodl, prodh, cstack
 Tracked objects:
		On entry : 
		On exit  : 
		Unchanged: 
 Data sizes:     COMRAM   BANK0   BANK1   BANK2   BANK3   BANK4   BANK5   BANK6   BANK7
      Params:         2       0       0       0       0       0       0       0       0
      Locals:         3       0       0       0       0       0       0       0       0
      Temps:          2       0       0       0       0       0       0       0       0
      Totals:         7       0       0       0       0       0       0       0       0
Total ram usage:        7 bytes
 Hardware stack levels used:    1
 Hardware stack levels required when called:    4
 This function calls:
		___wmul
		_isdigit
 This function is called by:
		_verifica_fence_externo
 This function uses a non-reentrant model


 *************** function _isdigit *****************
 Defined at:
		line 8 in file "C:\Program Files\Microchip\xc8\v2.30\pic\sources\c90\common\isdigit.c"
 Parameters:    Size  Location     Type
  c               1    wreg     unsigned char 
 Auto vars:     Size  Location     Type
  c               1   26[COMRAM] unsigned char 
 Return value:  Size  Location     Type
		None               void
 Registers used:
		wreg, status,2, status,0
 Tracked objects:
		On entry : 
		On exit  : 
		Unchanged: 
 Data sizes:     COMRAM   BANK0   BANK1   BANK2   BANK3   BANK4   BANK5   BANK6   BANK7
      Params:         0       0       0       0       0       0       0       0       0
      Locals:         2       0       0       0       0       0       0       0       0
      Temps:          1       0       0       0       0       0       0       0       0
      Totals:         3       0       0       0       0       0       0       0       0
Total ram usage:        3 bytes
 Hardware stack levels used:    1
 Hardware stack levels required when called:    3
 This function calls:
		Nothing
 This function is called by:
		_atoi
 This function uses a non-reentrant model


 *************** function _escreve_inteiro_lcd *****************
 Defined at:
		line 376 in file "bibliotecas/display_lcd.c"
 Parameters:    Size  Location     Type
  valor           2   45[COMRAM] int 
 Auto vars:     Size  Location     Type
  texto           7    0[BANK0 ] unsigned char [7]
 Return value:  Size  Location     Type
                  1    wreg      void 
 Registers used:
		wreg, fsr1l, fsr1h, fsr2l, fsr2h, status,2, status,0, tblptrl, tblptrh, tblptru, cstack
 Tracked objects:
		On entry : 
		On exit  : 
		Unchanged: 
 Data sizes:     COMRAM   BANK0   BANK1   BANK2   BANK3   BANK4   BANK5   BANK6   BANK7
      Params:         2       0       0       0       0       0       0       0       0
      Locals:         0       7       0       0       0       0       0       0       0
      Temps:          0       0       0       0       0       0       0       0       0
      Totals:         2       7       0       0       0       0       0       0       0
Total ram usage:        9 bytes
 Hardware stack levels used:    1
 Hardware stack levels required when called:    6
 This function calls:
		_escreve_frase_ram_lcd
		_itoa
 This function is called by:
		_troca_de_tela
 This function uses a non-reentrant model


 *************** function _itoa *****************
 Defined at:
		line 4 in file "C:\Program Files\Microchip\xc8\v2.30\pic\sources\c90\common\itoa.c"
 Parameters:    Size  Location     Type
  buf             1   39[COMRAM] PTR unsigned char 
		 -> escreve_inteiro_uart@valor_final(7), escreve_inteiro_lcd@texto(7), 
  val             2   40[COMRAM] int 
  base            2   42[COMRAM] int 
 Auto vars:     Size  Location     Type
  cp              1    0        PTR unsigned char 
		 -> escreve_inteiro_uart@valor_final(7), escreve_inteiro_lcd@texto(7), 
 Return value:  Size  Location     Type
                  1    wreg      PTR unsigned char 
 Registers used:
		wreg, fsr2l, fsr2h, status,2, status,0, cstack
 Tracked objects:
		On entry : 
		On exit  : 
		Unchanged: 
 Data sizes:     COMRAM   BANK0   BANK1   BANK2   BANK3   BANK4   BANK5   BANK6   BANK7
      Params:         5       0       0       0       0       0       0       0       0
      Locals:         1       0       0       0       0       0       0       0       0
      Temps:          0       0       0       0       0       0       0       0       0
      Totals:         6       0       0       0       0       0       0       0       0
Total ram usage:        6 bytes
 Hardware stack levels used:    1
 Hardware stack levels required when called:    5
 This function calls:
		_utoa
 This function is called by:
		_escreve_inteiro_lcd
 This function uses a non-reentrant model


 *************** function _utoa *****************
 Defined at:
		line 17 in file "C:\Program Files\Microchip\xc8\v2.30\pic\sources\c90\common\itoa.c"
 Parameters:    Size  Location     Type
  buf             1   31[COMRAM] PTR unsigned char 
		 -> escreve_inteiro_uart@valor_final(7), escreve_inteiro_lcd@texto(7), 
  val             2   32[COMRAM] unsigned int 
  base            2   34[COMRAM] int 
 Auto vars:     Size  Location     Type
  v               2   36[COMRAM] unsigned int 
  c               1   38[COMRAM] unsigned char 
 Return value:  Size  Location     Type
                  1    wreg      PTR unsigned char 
 Registers used:
		wreg, fsr2l, fsr2h, status,2, status,0, cstack
 Tracked objects:
		On entry : 
		On exit  : 
		Unchanged: 
 Data sizes:     COMRAM   BANK0   BANK1   BANK2   BANK3   BANK4   BANK5   BANK6   BANK7
      Params:         5       0       0       0       0       0       0       0       0
      Locals:         3       0       0       0       0       0       0       0       0
      Temps:          0       0       0       0       0       0       0       0       0
      Totals:         8       0       0       0       0       0       0       0       0
Total ram usage:        8 bytes
 Hardware stack levels used:    1
 Hardware stack levels required when called:    4
 This function calls:
		___lwdiv
		___lwmod
 This function is called by:
		_itoa
 This function uses a non-reentrant model


 *************** function ___lwmod *****************
 Defined at:
		line 7 in file "C:\Program Files\Microchip\xc8\v2.30\pic\sources\c90\common\lwmod.c"
 Parameters:    Size  Location     Type
  dividend        2   24[COMRAM] unsigned int 
  divisor         2   26[COMRAM] unsigned int 
 Auto vars:     Size  Location     Type
  counter         1   28[COMRAM] unsigned char 
 Return value:  Size  Location     Type
                  2   24[COMRAM] unsigned int 
 Registers used:
		wreg, status,2, status,0
 Tracked objects:
		On entry : 
		On exit  : 
		Unchanged: 
 Data sizes:     COMRAM   BANK0   BANK1   BANK2   BANK3   BANK4   BANK5   BANK6   BANK7
      Params:         4       0       0       0       0       0       0       0       0
      Locals:         1       0       0       0       0       0       0       0       0
      Temps:          0       0       0       0       0       0       0       0       0
      Totals:         5       0       0       0       0       0       0       0       0
Total ram usage:        5 bytes
 Hardware stack levels used:    1
 Hardware stack levels required when called:    3
 This function calls:
		Nothing
 This function is called by:
		_utoa
 This function uses a non-reentrant model


 *************** function ___lwdiv *****************
 Defined at:
		line 7 in file "C:\Program Files\Microchip\xc8\v2.30\pic\sources\c90\common\lwdiv.c"
 Parameters:    Size  Location     Type
  dividend        2   24[COMRAM] unsigned int 
  divisor         2   26[COMRAM] unsigned int 
 Auto vars:     Size  Location     Type
  quotient        2   29[COMRAM] unsigned int 
  counter         1   28[COMRAM] unsigned char 
 Return value:  Size  Location     Type
                  2   24[COMRAM] unsigned int 
 Registers used:
		wreg, status,2, status,0
 Tracked objects:
		On entry : 
		On exit  : 
		Unchanged: 
 Data sizes:     COMRAM   BANK0   BANK1   BANK2   BANK3   BANK4   BANK5   BANK6   BANK7
      Params:         4       0       0       0       0       0       0       0       0
      Locals:         3       0       0       0       0       0       0       0       0
      Temps:          0       0       0       0       0       0       0       0       0
      Totals:         7       0       0       0       0       0       0       0       0
Total ram usage:        7 bytes
 Hardware stack levels used:    1
 Hardware stack levels required when called:    3
 This function calls:
		Nothing
 This function is called by:
		_utoa
 This function uses a non-reentrant model


 *************** function _escreve_cmd_lcd *****************
 Defined at:
		line 162 in file "bibliotecas/display_lcd.c"
 Parameters:    Size  Location     Type
  comando         1    wreg     unsigned char 
 Auto vars:     Size  Location     Type
  comando         1   26[COMRAM] unsigned char 
 Return value:  Size  Location     Type
                  1    wreg      void 
 Registers used:
		wreg, status,2, status,0, cstack
 Tracked objects:
		On entry : 
		On exit  : 
		Unchanged: 
 Data sizes:     COMRAM   BANK0   BANK1   BANK2   BANK3   BANK4   BANK5   BANK6   BANK7
      Params:         0       0       0       0       0       0       0       0       0
      Locals:         1       0       0       0       0       0       0       0       0
      Temps:          0       0       0       0       0       0       0       0       0
      Totals:         1       0       0       0       0       0       0       0       0
Total ram usage:        1 bytes
 Hardware stack levels used:    1
 Hardware stack levels required when called:    4
 This function calls:
		_delay
 This function is called by:
		_init_lcd
		_mensagem_inicial
		_troca_de_tela
 This function uses a non-reentrant model


 *************** function _Longitude *****************
 Defined at:
		line 178 in file "bibliotecas/GPS.c"
 Parameters:    Size  Location     Type
		None
 Auto vars:     Size  Location     Type
		None
 Return value:  Size  Location     Type
                  2   24[COMRAM] PTR unsigned char 
 Registers used:
		wreg, status,2, status,0
 Tracked objects:
		On entry : 
		On exit  : 
		Unchanged: 
 Data sizes:     COMRAM   BANK0   BANK1   BANK2   BANK3   BANK4   BANK5   BANK6   BANK7
      Params:         2       0       0       0       0       0       0       0       0
      Locals:         0       0       0       0       0       0       0       0       0
      Temps:          0       0       0       0       0       0       0       0       0
      Totals:         2       0       0       0       0       0       0       0       0
Total ram usage:        2 bytes
 Hardware stack levels used:    1
 Hardware stack levels required when called:    3
 This function calls:
		Nothing
 This function is called by:
		_verifica_fence_externo
		_troca_de_tela
 This function uses a non-reentrant model


 *************** function _Latitude *****************
 Defined at:
		line 173 in file "bibliotecas/GPS.c"
 Parameters:    Size  Location     Type
		None
 Auto vars:     Size  Location     Type
		None
 Return value:  Size  Location     Type
                  2   24[COMRAM] PTR unsigned char 
 Registers used:
		wreg, status,2, status,0
 Tracked objects:
		On entry : 
		On exit  : 
		Unchanged: 
 Data sizes:     COMRAM   BANK0   BANK1   BANK2   BANK3   BANK4   BANK5   BANK6   BANK7
      Params:         2       0       0       0       0       0       0       0       0
      Locals:         0       0       0       0       0       0       0       0       0
      Temps:          0       0       0       0       0       0       0       0       0
      Totals:         2       0       0       0       0       0       0       0       0
Total ram usage:        2 bytes
 Hardware stack levels used:    1
 Hardware stack levels required when called:    3
 This function calls:
		Nothing
 This function is called by:
		_verifica_fence_externo
		_troca_de_tela
 This function uses a non-reentrant model


 *************** function _escrita_sdcard *****************
 Defined at:
		line 206 in file "bibliotecas/SDCard.c"
 Parameters:    Size  Location     Type
		None
 Auto vars:     Size  Location     Type
  fix_gps         2  145[BANK0 ] PTR unsigned char 
		 -> rawFix(2), 
  bw              2    0        unsigned short 
 Return value:  Size  Location     Type
                  1    wreg      void 
 Registers used:
		wreg, fsr1l, fsr1h, fsr2l, fsr2h, status,2, status,0, tblptrl, tblptrh, tblptru, prodl, prodh, cstack
 Tracked objects:
		On entry : 
		On exit  : 
		Unchanged: 
 Data sizes:     COMRAM   BANK0   BANK1   BANK2   BANK3   BANK4   BANK5   BANK6   BANK7
      Params:         0       0       0       0       0       0       0       0       0
      Locals:         0       2       0       0       0       0       0       0       0
      Temps:          0       1       0       0       0       0       0       0       0
      Totals:         0       3       0       0       0       0       0       0       0
Total ram usage:        3 bytes
 Hardware stack levels used:    1
 Hardware stack levels required when called:   15
 This function calls:
		_desliga_SPI
		_desliga_uart
		_f_close
		_f_lseek
		_f_mount
		_f_open
		_fix
		_fprintf
		_inicializa_SPI
		_inicializa_uart
		_strcat
		_strcpy
 This function is called by:
		_disparo_gravacao
 This function uses a non-reentrant model


 *************** function _strcpy *****************
 Defined at:
		line 8 in file "C:\Program Files\Microchip\xc8\v2.30\pic\sources\c90\common\strcpy.c"
 Parameters:    Size  Location     Type
  to              2   24[COMRAM] PTR unsigned char 
		 -> filename(15), 
  from            2   26[COMRAM] PTR const unsigned char 
		 -> string_dado.data(7), string_dado(59), 
 Auto vars:     Size  Location     Type
  cp              2   28[COMRAM] PTR unsigned char 
		 -> filename(15), 
 Return value:  Size  Location     Type
                  2   24[COMRAM] PTR unsigned char 
 Registers used:
		wreg, fsr1l, fsr1h, fsr2l, fsr2h, status,2, status,0
 Tracked objects:
		On entry : 
		On exit  : 
		Unchanged: 
 Data sizes:     COMRAM   BANK0   BANK1   BANK2   BANK3   BANK4   BANK5   BANK6   BANK7
      Params:         4       0       0       0       0       0       0       0       0
      Locals:         2       0       0       0       0       0       0       0       0
      Temps:          0       0       0       0       0       0       0       0       0
      Totals:         6       0       0       0       0       0       0       0       0
Total ram usage:        6 bytes
 Hardware stack levels used:    1
 Hardware stack levels required when called:    3
 This function calls:
		Nothing
 This function is called by:
		_escrita_sdcard
 This function uses a non-reentrant model


 *************** function _strcat *****************
 Defined at:
		line 8 in file "C:\Program Files\Microchip\xc8\v2.30\pic\sources\c90\common\strcat.c"
 Parameters:    Size  Location     Type
  to              2   24[COMRAM] PTR unsigned char 
		 -> filename(15), 
  from            2   26[COMRAM] PTR const unsigned char 
		 -> STR_13(5), 
 Auto vars:     Size  Location     Type
  cp              2   28[COMRAM] PTR unsigned char 
		 -> filename(15), 
 Return value:  Size  Location     Type
                  2   24[COMRAM] PTR unsigned char 
 Registers used:
		wreg, fsr2l, fsr2h, status,2, status,0, tblptrl, tblptrh, tblptru
 Tracked objects:
		On entry : 
		On exit  : 
		Unchanged: 
 Data sizes:     COMRAM   BANK0   BANK1   BANK2   BANK3   BANK4   BANK5   BANK6   BANK7
      Params:         4       0       0       0       0       0       0       0       0
      Locals:         2       0       0       0       0       0       0       0       0
      Temps:          0       0       0       0       0       0       0       0       0
      Totals:         6       0       0       0       0       0       0       0       0
Total ram usage:        6 bytes
 Hardware stack levels used:    1
 Hardware stack levels required when called:    3
 This function calls:
		Nothing
 This function is called by:
		_escrita_sdcard
 This function uses a non-reentrant model


 *************** function _inicializa_uart *****************
 Defined at:
		line 206 in file "bibliotecas/uart.c"
 Parameters:    Size  Location     Type
		None
 Auto vars:     Size  Location     Type
		None
 Return value:  Size  Location     Type
                  1    wreg      void 
 Registers used:
		wreg, status,2, status,0, cstack
 Tracked objects:
		On entry : 
		On exit  : 
		Unchanged: 
 Data sizes:     COMRAM   BANK0   BANK1   BANK2   BANK3   BANK4   BANK5   BANK6   BANK7
      Params:         0       0       0       0       0       0       0       0       0
      Locals:         0       0       0       0       0       0       0       0       0
      Temps:          0       0       0       0       0       0       0       0       0
      Totals:         0       0       0       0       0       0       0       0       0
Total ram usage:        0 bytes
 Hardware stack levels used:    1
 Hardware stack levels required when called:    5
 This function calls:
		_configura_baudrate_uart
 This function is called by:
		_escrita_sdcard
		_main
 This function uses a non-reentrant model


 *************** function _configura_baudrate_uart *****************
 Defined at:
		line 50 in file "bibliotecas/uart.c"
 Parameters:    Size  Location     Type
  baudrate        4   38[COMRAM] const long 
 Auto vars:     Size  Location     Type
  x               2    0[BANK0 ] unsigned int 
 Return value:  Size  Location     Type
                  1    wreg      unsigned char 
 Registers used:
		wreg, status,2, status,0, cstack
 Tracked objects:
		On entry : 
		On exit  : 
		Unchanged: 
 Data sizes:     COMRAM   BANK0   BANK1   BANK2   BANK3   BANK4   BANK5   BANK6   BANK7
      Params:         4       0       0       0       0       0       0       0       0
      Locals:         0       2       0       0       0       0       0       0       0
      Temps:          8       0       0       0       0       0       0       0       0
      Totals:        12       2       0       0       0       0       0       0       0
Total ram usage:       14 bytes
 Hardware stack levels used:    1
 Hardware stack levels required when called:    4
 This function calls:
		___aldiv
 This function is called by:
		_inicializa_uart
 This function uses a non-reentrant model


 *************** function ___aldiv *****************
 Defined at:
		line 7 in file "C:\Program Files\Microchip\xc8\v2.30\pic\sources\c90\common\aldiv.c"
 Parameters:    Size  Location     Type
  dividend        4   24[COMRAM] long 
  divisor         4   28[COMRAM] long 
 Auto vars:     Size  Location     Type
  quotient        4   34[COMRAM] long 
  sign            1   33[COMRAM] unsigned char 
  counter         1   32[COMRAM] unsigned char 
 Return value:  Size  Location     Type
                  4   24[COMRAM] long 
 Registers used:
		wreg, status,2, status,0
 Tracked objects:
		On entry : 
		On exit  : 
		Unchanged: 
 Data sizes:     COMRAM   BANK0   BANK1   BANK2   BANK3   BANK4   BANK5   BANK6   BANK7
      Params:         8       0       0       0       0       0       0       0       0
      Locals:         6       0       0       0       0       0       0       0       0
      Temps:          0       0       0       0       0       0       0       0       0
      Totals:        14       0       0       0       0       0       0       0       0
Total ram usage:       14 bytes
 Hardware stack levels used:    1
 Hardware stack levels required when called:    3
 This function calls:
		Nothing
 This function is called by:
		_configura_baudrate_uart
 This function uses a non-reentrant model


 *************** function _inicializa_SPI *****************
 Defined at:
		line 48 in file "bibliotecas/SPI.c"
 Parameters:    Size  Location     Type
		None
 Auto vars:     Size  Location     Type
		None
 Return value:  Size  Location     Type
                  1    wreg      void 
 Registers used:
		wreg, status,2, status,0
 Tracked objects:
		On entry : 
		On exit  : 
		Unchanged: 
 Data sizes:     COMRAM   BANK0   BANK1   BANK2   BANK3   BANK4   BANK5   BANK6   BANK7
      Params:         0       0       0       0       0       0       0       0       0
      Locals:         0       0       0       0       0       0       0       0       0
      Temps:          0       0       0       0       0       0       0       0       0
      Totals:         0       0       0       0       0       0       0       0       0
Total ram usage:        0 bytes
 Hardware stack levels used:    1
 Hardware stack levels required when called:    3
 This function calls:
		Nothing
 This function is called by:
		_escrita_sdcard
 This function uses a non-reentrant model


 *************** function _fprintf *****************
 Defined at:
		line 1816 in file "bibliotecas/tff.c"
 Parameters:    Size  Location     Type
  fil             2  122[BANK0 ] PTR struct _FIL
		 -> fil(28), 
  str             2  124[BANK0 ] PTR const unsigned char 
		 -> STR_14(35), 
 Auto vars:     Size  Location     Type
  s              16    0[BANK3 ] unsigned char [16]
  val             4   24[BANK3 ] unsigned long 
  i               2   31[BANK3 ] int 
  cc              2   29[BANK3 ] int 
  w               2   20[BANK3 ] int 
  res             2   16[BANK3 ] int 
  c               1   33[BANK3 ] unsigned char 
  arp             1   28[BANK3 ] PTR void [1]
		 -> ?_fprintf(2), 
  r               1   23[BANK3 ] unsigned char 
  f               1   22[BANK3 ] unsigned char 
 Return value:  Size  Location     Type
                  2  122[BANK0 ] int 
 Registers used:
		wreg, fsr1l, fsr1h, fsr2l, fsr2h, status,2, status,0, tblptrl, tblptrh, tblptru, prodl, prodh, cstack
 Tracked objects:
		On entry : 
		On exit  : 
		Unchanged: 
 Data sizes:     COMRAM   BANK0   BANK1   BANK2   BANK3   BANK4   BANK5   BANK6   BANK7
      Params:         0      20       0       0       0       0       0       0       0
      Locals:         0       0       0       0      34       0       0       0       0
      Temps:          0       2       0       0       0       0       0       0       0
      Totals:         0      22       0       0      34       0       0       0       0
Total ram usage:       56 bytes
 Hardware stack levels used:    1
 Hardware stack levels required when called:   14
 This function calls:
		___lldiv
		___llmod
		___wmul
		_fputc
		_fputs
 This function is called by:
		_escrita_sdcard
 This function uses a non-reentrant model


 *************** function _fputs *****************
 Defined at:
		line 1796 in file "bibliotecas/tff.c"
 Parameters:    Size  Location     Type
  str             2  115[BANK0 ] PTR const unsigned char 
		 -> fprintf@s(16), ?_fprintf(2), STR_19(16), STR_18(27), 
		 -> STR_17(17), STR_16(16), STR_15(16), string_dado(59), 
  fil             2  117[BANK0 ] PTR struct _FIL
		 -> fil(28), 
 Auto vars:     Size  Location     Type
  n               2  120[BANK0 ] int 
 Return value:  Size  Location     Type
                  2  115[BANK0 ] int 
 Registers used:
		wreg, fsr1l, fsr1h, fsr2l, fsr2h, status,2, status,0, tblptrl, tblptrh, tblptru, prodl, prodh, cstack
 Tracked objects:
		On entry : 
		On exit  : 
		Unchanged: 
 Data sizes:     COMRAM   BANK0   BANK1   BANK2   BANK3   BANK4   BANK5   BANK6   BANK7
      Params:         0       4       0       0       0       0       0       0       0
      Locals:         0       2       0       0       0       0       0       0       0
      Temps:          0       1       0       0       0       0       0       0       0
      Totals:         0       7       0       0       0       0       0       0       0
Total ram usage:        7 bytes
 Hardware stack levels used:    1
 Hardware stack levels required when called:   13
 This function calls:
		_fputc
 This function is called by:
		_fprintf
 This function uses a non-reentrant model


 *************** function _fputc *****************
 Defined at:
		line 1769 in file "bibliotecas/tff.c"
 Parameters:    Size  Location     Type
  chr             2  108[BANK0 ] int 
  fil             2  110[BANK0 ] PTR struct _FIL
		 -> fil(28), 
 Auto vars:     Size  Location     Type
  bw              2  113[BANK0 ] unsigned int 
  c               1  112[BANK0 ] unsigned char 
 Return value:  Size  Location     Type
                  2  108[BANK0 ] int 
 Registers used:
		wreg, fsr1l, fsr1h, fsr2l, fsr2h, status,2, status,0, prodl, prodh, cstack
 Tracked objects:
		On entry : 
		On exit  : 
		Unchanged: 
 Data sizes:     COMRAM   BANK0   BANK1   BANK2   BANK3   BANK4   BANK5   BANK6   BANK7
      Params:         0       4       0       0       0       0       0       0       0
      Locals:         0       3       0       0       0       0       0       0       0
      Temps:          0       0       0       0       0       0       0       0       0
      Totals:         0       7       0       0       0       0       0       0       0
Total ram usage:        7 bytes
 Hardware stack levels used:    1
 Hardware stack levels required when called:   12
 This function calls:
		_f_write
 This function is called by:
		_fputs
		_fprintf
 This function uses a non-reentrant model


 *************** function _f_write *****************
 Defined at:
		line 999 in file "bibliotecas/tff.c"
 Parameters:    Size  Location     Type
  fp              2   78[BANK0 ] PTR struct _FIL
		 -> fil(28), 
  buff            1   80[BANK0 ] PTR const void 
		 -> fputc@c(1), 
  btw             2   81[BANK0 ] unsigned int 
  bw              1   83[BANK0 ] PTR unsigned int 
		 -> fputc@bw(2), 
 Auto vars:     Size  Location     Type
  sect            4   98[BANK0 ] unsigned long 
  wcnt            2  106[BANK0 ] unsigned int 
  clust           2  104[BANK0 ] unsigned short 
  cc              2  102[BANK0 ] unsigned int 
  wbuff           1   97[BANK0 ] PTR const unsigned char 
		 -> fputc@c(1), 
  res             1   96[BANK0 ] enum E155
 Return value:  Size  Location     Type
                  1    wreg      enum E155
 Registers used:
		wreg, fsr1l, fsr1h, fsr2l, fsr2h, status,2, status,0, prodl, prodh, cstack
 Tracked objects:
		On entry : 
		On exit  : 
		Unchanged: 
 Data sizes:     COMRAM   BANK0   BANK1   BANK2   BANK3   BANK4   BANK5   BANK6   BANK7
      Params:         0       6       0       0       0       0       0       0       0
      Locals:         0      12       0       0       0       0       0       0       0
      Temps:          0      12       0       0       0       0       0       0       0
      Totals:         0      30       0       0       0       0       0       0       0
Total ram usage:       30 bytes
 Hardware stack levels used:    1
 Hardware stack levels required when called:   11
 This function calls:
		_clust2sect
		_create_chain
		_disk_write
		_memcpy
		_move_window
		_validate
 This function is called by:
		_fputc
 This function uses a non-reentrant model


 *************** function ___llmod *****************
 Defined at:
		line 7 in file "C:\Program Files\Microchip\xc8\v2.30\pic\sources\c90\common\llmod.c"
 Parameters:    Size  Location     Type
  dividend        4   24[COMRAM] unsigned long 
  divisor         4   28[COMRAM] unsigned long 
 Auto vars:     Size  Location     Type
  counter         1   32[COMRAM] unsigned char 
 Return value:  Size  Location     Type
                  4   24[COMRAM] unsigned long 
 Registers used:
		wreg, status,2, status,0
 Tracked objects:
		On entry : 
		On exit  : 
		Unchanged: 
 Data sizes:     COMRAM   BANK0   BANK1   BANK2   BANK3   BANK4   BANK5   BANK6   BANK7
      Params:         8       0       0       0       0       0       0       0       0
      Locals:         1       0       0       0       0       0       0       0       0
      Temps:          0       0       0       0       0       0       0       0       0
      Totals:         9       0       0       0       0       0       0       0       0
Total ram usage:        9 bytes
 Hardware stack levels used:    1
 Hardware stack levels required when called:    3
 This function calls:
		Nothing
 This function is called by:
		_fprintf
 This function uses a non-reentrant model


 *************** function _fix *****************
 Defined at:
		line 183 in file "bibliotecas/GPS.c"
 Parameters:    Size  Location     Type
		None
 Auto vars:     Size  Location     Type
		None
 Return value:  Size  Location     Type
                  2   24[COMRAM] PTR unsigned char 
 Registers used:
		wreg, status,2, status,0
 Tracked objects:
		On entry : 
		On exit  : 
		Unchanged: 
 Data sizes:     COMRAM   BANK0   BANK1   BANK2   BANK3   BANK4   BANK5   BANK6   BANK7
      Params:         2       0       0       0       0       0       0       0       0
      Locals:         0       0       0       0       0       0       0       0       0
      Temps:          0       0       0       0       0       0       0       0       0
      Totals:         2       0       0       0       0       0       0       0       0
Total ram usage:        2 bytes
 Hardware stack levels used:    1
 Hardware stack levels required when called:    3
 This function calls:
		Nothing
 This function is called by:
		_escrita_sdcard
		_troca_de_tela
 This function uses a non-reentrant model


 *************** function _f_open *****************
 Defined at:
		line 833 in file "bibliotecas/tff.c"
 Parameters:    Size  Location     Type
  fp              2   96[BANK0 ] PTR struct _FIL
		 -> fil(28), 
  path            2   98[BANK0 ] PTR const unsigned char 
		 -> STR_20(13), filename(15), 
  mode            1  100[BANK0 ] unsigned char 
 Auto vars:     Size  Location     Type
  dw              4  119[BANK0 ] unsigned long 
  rs              2  117[BANK0 ] unsigned short 
  dj             14  126[BANK0 ] struct _DIR_E
  fn             12  105[BANK0 ] unsigned char [12]
  dir             2  124[BANK0 ] PTR unsigned char 
		 -> NULL(0), fs(544), 
  res             1  123[BANK0 ] enum E155
 Return value:  Size  Location     Type
                  1    wreg      enum E3236
 Registers used:
		wreg, fsr1l, fsr1h, fsr2l, fsr2h, status,2, status,0, tblptrl, tblptrh, tblptru, prodl, prodh, cstack
 Tracked objects:
		On entry : 
		On exit  : 
		Unchanged: 
 Data sizes:     COMRAM   BANK0   BANK1   BANK2   BANK3   BANK4   BANK5   BANK6   BANK7
      Params:         0       5       0       0       0       0       0       0       0
      Locals:         0      35       0       0       0       0       0       0       0
      Temps:          0       4       0       0       0       0       0       0       0
      Totals:         0      44       0       0       0       0       0       0       0
Total ram usage:       44 bytes
 Hardware stack levels used:    1
 Hardware stack levels required when called:   12
 This function calls:
		_auto_mount
		_get_fattime
		_memcpy
		_memset
		_move_window
		_remove_chain
		_reserve_direntry
		_trace_path
 This function is called by:
		_escrita_sdcard
 This function uses a non-reentrant model


 *************** function _trace_path *****************
 Defined at:
		line 502 in file "bibliotecas/tff.c"
 Parameters:    Size  Location     Type
  dj              1   71[BANK0 ] PTR struct _DIR_E
		 -> f_open@dj(14), 
  fn              1   72[BANK0 ] PTR unsigned char 
		 -> f_opendir@fn(12), f_open@fn(12), 
  path            2   73[BANK0 ] PTR const unsigned char 
		 -> STR_20(13), filename(15), 
  dir             1   75[BANK0 ] PTR PTR unsigned char 
		 -> f_opendir@dir(2), f_open@dir(2), 
 Auto vars:     Size  Location     Type
  dptr            2   89[BANK0 ] PTR unsigned char 
		 -> fs.win(512), NULL(0), fs(544), 
  clust           2   86[BANK0 ] unsigned short 
  fs              2   84[BANK0 ] PTR struct _FATFS
		 -> NULL(0), fs(544), 
  ds              1   88[BANK0 ] unsigned char 
 Return value:  Size  Location     Type
                  1    wreg      enum E155
 Registers used:
		wreg, fsr1l, fsr1h, fsr2l, fsr2h, status,2, status,0, tblptrl, tblptrh, tblptru, prodl, prodh, cstack
 Tracked objects:
		On entry : 
		On exit  : 
		Unchanged: 
 Data sizes:     COMRAM   BANK0   BANK1   BANK2   BANK3   BANK4   BANK5   BANK6   BANK7
      Params:         0       5       0       0       0       0       0       0       0
      Locals:         0      11       0       0       0       0       0       0       0
      Temps:          0       4       0       0       0       0       0       0       0
      Totals:         0      20       0       0       0       0       0       0       0
Total ram usage:       20 bytes
 Hardware stack levels used:    1
 Hardware stack levels required when called:   11
 This function calls:
		_clust2sect
		_make_dirfile
		_memcmp
		_move_window
		_next_dir_entry
 This function is called by:
		_f_open
 This function uses a non-reentrant model


 *************** function _make_dirfile *****************
 Defined at:
		line 439 in file "bibliotecas/tff.c"
 Parameters:    Size  Location     Type
  path            1   32[COMRAM] PTR PTR const unsigned c
		 -> trace_path@path(2), 
  dirname         1   33[COMRAM] PTR unsigned char 
		 -> f_opendir@fn(12), f_open@fn(12), 
 Auto vars:     Size  Location     Type
  c               1   42[COMRAM] unsigned char 
  n               1   41[COMRAM] unsigned char 
  a               1   40[COMRAM] unsigned char 
  t               1   39[COMRAM] unsigned char 
  b               1   38[COMRAM] unsigned char 
 Return value:  Size  Location     Type
                  1    wreg      unsigned char 
 Registers used:
		wreg, fsr1l, fsr1h, fsr2l, fsr2h, status,2, status,0, tblptrl, tblptrh, tblptru, cstack
 Tracked objects:
		On entry : 
		On exit  : 
		Unchanged: 
 Data sizes:     COMRAM   BANK0   BANK1   BANK2   BANK3   BANK4   BANK5   BANK6   BANK7
      Params:         2       0       0       0       0       0       0       0       0
      Locals:         7       0       0       0       0       0       0       0       0
      Temps:          2       0       0       0       0       0       0       0       0
      Totals:        11       0       0       0       0       0       0       0       0
Total ram usage:       11 bytes
 Hardware stack levels used:    1
 Hardware stack levels required when called:    4
 This function calls:
		_memset
 This function is called by:
		_trace_path
 This function uses a non-reentrant model


 *************** function _reserve_direntry *****************
 Defined at:
		line 568 in file "bibliotecas/tff.c"
 Parameters:    Size  Location     Type
  dj              1   78[BANK0 ] PTR struct _DIR_E
		 -> f_open@dj(14), 
  dir             1   79[BANK0 ] PTR PTR unsigned char 
		 -> f_open@dir(2), 
 Auto vars:     Size  Location     Type
  sector          4   84[BANK0 ] unsigned long 
  fs              2   94[BANK0 ] PTR struct _FATFS
		 -> NULL(0), fs(544), 
  clust           2   92[BANK0 ] unsigned short 
  dptr            2   89[BANK0 ] PTR unsigned char 
		 -> fs.win(512), NULL(0), fs(544), 
  c               1   91[BANK0 ] unsigned char 
  n               1   88[BANK0 ] unsigned char 
 Return value:  Size  Location     Type
                  1    wreg      enum E155
 Registers used:
		wreg, fsr1l, fsr1h, fsr2l, fsr2h, status,2, status,0, prodl, prodh, cstack
 Tracked objects:
		On entry : 
		On exit  : 
		Unchanged: 
 Data sizes:     COMRAM   BANK0   BANK1   BANK2   BANK3   BANK4   BANK5   BANK6   BANK7
      Params:         0       2       0       0       0       0       0       0       0
      Locals:         0      12       0       0       0       0       0       0       0
      Temps:          0       4       0       0       0       0       0       0       0
      Totals:         0      18       0       0       0       0       0       0       0
Total ram usage:       18 bytes
 Hardware stack levels used:    1
 Hardware stack levels required when called:   11
 This function calls:
		_clust2sect
		_create_chain
		_disk_write
		_memset
		_move_window
		_next_dir_entry
 This function is called by:
		_f_open
 This function uses a non-reentrant model


 *************** function _next_dir_entry *****************
 Defined at:
		line 359 in file "bibliotecas/tff.c"
 Parameters:    Size  Location     Type
  dj              1   59[BANK0 ] PTR struct _DIR_E
		 -> f_open@dj(14), 
 Auto vars:     Size  Location     Type
  idx             2   69[BANK0 ] unsigned short 
  clust           2   67[BANK0 ] unsigned short 
 Return value:  Size  Location     Type
                  1    wreg      enum E105
 Registers used:
		wreg, fsr1l, fsr1h, fsr2l, fsr2h, status,2, status,0, prodl, prodh, cstack
 Tracked objects:
		On entry : 
		On exit  : 
		Unchanged: 
 Data sizes:     COMRAM   BANK0   BANK1   BANK2   BANK3   BANK4   BANK5   BANK6   BANK7
      Params:         0       1       0       0       0       0       0       0       0
      Locals:         0       4       0       0       0       0       0       0       0
      Temps:          0       7       0       0       0       0       0       0       0
      Totals:         0      12       0       0       0       0       0       0       0
Total ram usage:       12 bytes
 Hardware stack levels used:    1
 Hardware stack levels required when called:   10
 This function calls:
		_clust2sect
		_get_cluster
 This function is called by:
		_trace_path
		_reserve_direntry
 This function uses a non-reentrant model


 *************** function _clust2sect *****************
 Defined at:
		line 339 in file "bibliotecas/tff.c"
 Parameters:    Size  Location     Type
  clust           2   36[COMRAM] unsigned short 
 Auto vars:     Size  Location     Type
  fs              2   45[COMRAM] PTR struct _FATFS
		 -> NULL(0), fs(544), 
 Return value:  Size  Location     Type
                  4   36[COMRAM] unsigned long 
 Registers used:
		wreg, fsr2l, fsr2h, status,2, status,0, cstack
 Tracked objects:
		On entry : 
		On exit  : 
		Unchanged: 
 Data sizes:     COMRAM   BANK0   BANK1   BANK2   BANK3   BANK4   BANK5   BANK6   BANK7
      Params:         4       0       0       0       0       0       0       0       0
      Locals:         2       0       0       0       0       0       0       0       0
      Temps:          5       0       0       0       0       0       0       0       0
      Totals:        11       0       0       0       0       0       0       0       0
Total ram usage:       11 bytes
 Hardware stack levels used:    1
 Hardware stack levels required when called:    4
 This function calls:
		___lmul
 This function is called by:
		_next_dir_entry
		_trace_path
		_reserve_direntry
		_f_write
		_f_read
 This function uses a non-reentrant model


 *************** function _remove_chain *****************
 Defined at:
		line 250 in file "bibliotecas/tff.c"
 Parameters:    Size  Location     Type
  clust           2   64[BANK0 ] unsigned short 
 Auto vars:     Size  Location     Type
  fs              2   70[BANK0 ] PTR struct _FATFS
		 -> NULL(0), fs(544), 
  nxt             2   68[BANK0 ] unsigned short 
 Return value:  Size  Location     Type
                  1    wreg      enum E105
 Registers used:
		wreg, fsr2l, fsr2h, status,2, status,0, prodl, prodh, cstack
 Tracked objects:
		On entry : 
		On exit  : 
		Unchanged: 
 Data sizes:     COMRAM   BANK0   BANK1   BANK2   BANK3   BANK4   BANK5   BANK6   BANK7
      Params:         0       2       0       0       0       0       0       0       0
      Locals:         0       4       0       0       0       0       0       0       0
      Temps:          0       2       0       0       0       0       0       0       0
      Totals:         0       8       0       0       0       0       0       0       0
Total ram usage:        8 bytes
 Hardware stack levels used:    1
 Hardware stack levels required when called:   10
 This function calls:
		_get_cluster
		_put_cluster
 This function is called by:
		_f_open
 This function uses a non-reentrant model


 *************** function _memcpy *****************
 Defined at:
		line 27 in file "C:\Program Files\Microchip\xc8\v2.30\pic\sources\c90\common\memcpy.c"
 Parameters:    Size  Location     Type
  d1              2   24[COMRAM] PTR void 
		 -> fs.win(512), NULL(0), dado_arquivo(20), fs(544), 
  s1              2   26[COMRAM] PTR const void 
		 -> fs.win(512), fputc@c(1), f_open@fn(12), NULL(0), 
		 -> fs(544), 
  n               2   28[COMRAM] unsigned int 
 Auto vars:     Size  Location     Type
  s               2   33[COMRAM] PTR const unsigned char 
		 -> fs.win(512), fputc@c(1), f_open@fn(12), NULL(0), 
		 -> fs(544), 
  d               2   31[COMRAM] PTR unsigned char 
		 -> fs.win(512), NULL(0), dado_arquivo(20), fs(544), 
  tmp             1   30[COMRAM] unsigned char 
 Return value:  Size  Location     Type
                  2   24[COMRAM] PTR void 
 Registers used:
		wreg, fsr2l, fsr2h, status,2, status,0
 Tracked objects:
		On entry : 
		On exit  : 
		Unchanged: 
 Data sizes:     COMRAM   BANK0   BANK1   BANK2   BANK3   BANK4   BANK5   BANK6   BANK7
      Params:         6       0       0       0       0       0       0       0       0
      Locals:         5       0       0       0       0       0       0       0       0
      Temps:          0       0       0       0       0       0       0       0       0
      Totals:        11       0       0       0       0       0       0       0       0
Total ram usage:       11 bytes
 Hardware stack levels used:    1
 Hardware stack levels required when called:    3
 This function calls:
		Nothing
 This function is called by:
		_f_open
		_f_write
		_f_read
 This function uses a non-reentrant model


 *************** function _auto_mount *****************
 Defined at:
		line 652 in file "bibliotecas/tff.c"
 Parameters:    Size  Location     Type
  path            1   25[BANK0 ] PTR PTR const unsigned c
		 -> f_opendir@path(2), f_open@path(2), 
  chk_wp          1   26[BANK0 ] unsigned char 
 Auto vars:     Size  Location     Type
  fatsize         4   65[BANK0 ] unsigned long 
  totalsect       4   57[BANK0 ] unsigned long 
  bootsect        4   53[BANK0 ] unsigned long 
  maxclust        4   49[BANK0 ] unsigned long 
  fs              2   69[BANK0 ] PTR struct _FATFS
		 -> NULL(0), fs(544), 
  p               2   61[BANK0 ] PTR const unsigned char 
		 -> STR_20(13), filename(15), 
  stat            1   64[BANK0 ] unsigned char 
  fmt             1   63[BANK0 ] unsigned char 
 Return value:  Size  Location     Type
                  1    wreg      enum E155
 Registers used:
		wreg, fsr1l, fsr1h, fsr2l, fsr2h, status,2, status,0, tblptrl, tblptrh, tblptru, cstack
 Tracked objects:
		On entry : 
		On exit  : 
		Unchanged: 
 Data sizes:     COMRAM   BANK0   BANK1   BANK2   BANK3   BANK4   BANK5   BANK6   BANK7
      Params:         0       2       0       0       0       0       0       0       0
      Locals:         0      22       0       0       0       0       0       0       0
      Temps:          0      22       0       0       0       0       0       0       0
      Totals:         0      46       0       0       0       0       0       0       0
Total ram usage:       46 bytes
 Hardware stack levels used:    1
 Hardware stack levels required when called:    9
 This function calls:
		___lldiv
		___lmul
		_check_fs
		_disk_initialize
		_disk_status
		_memset
 This function is called by:
		_f_open
 This function uses a non-reentrant model


 *************** function _memset *****************
 Defined at:
		line 8 in file "C:\Program Files\Microchip\xc8\v2.30\pic\sources\c90\common\memset.c"
 Parameters:    Size  Location     Type
  p1              2   24[COMRAM] PTR void 
		 -> f_opendir@fn(12), f_open@fn(12), NULL(0), fs(544), 
  c               2   26[COMRAM] int 
  n               2   28[COMRAM] unsigned int 
 Auto vars:     Size  Location     Type
  p               2   30[COMRAM] PTR unsigned char 
		 -> f_opendir@fn(12), f_open@fn(12), NULL(0), fs(544), 
 Return value:  Size  Location     Type
                  2   24[COMRAM] PTR void 
 Registers used:
		wreg, fsr2l, fsr2h, status,2, status,0
 Tracked objects:
		On entry : 
		On exit  : 
		Unchanged: 
 Data sizes:     COMRAM   BANK0   BANK1   BANK2   BANK3   BANK4   BANK5   BANK6   BANK7
      Params:         6       0       0       0       0       0       0       0       0
      Locals:         2       0       0       0       0       0       0       0       0
      Temps:          0       0       0       0       0       0       0       0       0
      Totals:         8       0       0       0       0       0       0       0       0
Total ram usage:        8 bytes
 Hardware stack levels used:    1
 Hardware stack levels required when called:    3
 This function calls:
		Nothing
 This function is called by:
		_make_dirfile
		_reserve_direntry
		_auto_mount
		_f_open
 This function uses a non-reentrant model


 *************** function _disk_initialize *****************
 Defined at:
		line 59 in file "bibliotecas/diskio.c"
 Parameters:    Size  Location     Type
  pdrv            1    wreg     unsigned char 
 Auto vars:     Size  Location     Type
  pdrv            1   44[COMRAM] unsigned char 
  result          2    0        int 
  stat            1   45[COMRAM] unsigned char 
 Return value:  Size  Location     Type
                  1    wreg      unsigned char 
 Registers used:
		wreg, fsr1l, fsr1h, status,2, status,0, tblptrl, tblptrh, tblptru, cstack
 Tracked objects:
		On entry : 
		On exit  : 
		Unchanged: 
 Data sizes:     COMRAM   BANK0   BANK1   BANK2   BANK3   BANK4   BANK5   BANK6   BANK7
      Params:         0       0       0       0       0       0       0       0       0
      Locals:         2       0       0       0       0       0       0       0       0
      Temps:          0       0       0       0       0       0       0       0       0
      Totals:         2       0       0       0       0       0       0       0       0
Total ram usage:        2 bytes
 Hardware stack levels used:    1
 Hardware stack levels required when called:    8
 This function calls:
		_sdc_disk_initialize
 This function is called by:
		_auto_mount
 This function uses a non-reentrant model


 *************** function _sdc_disk_initialize *****************
 Defined at:
		line 275 in file "bibliotecas/diskio.c"
 Parameters:    Size  Location     Type
		None
 Auto vars:     Size  Location     Type
  count2          2    9[BANK0 ] int 
  crc_number      2    5[BANK0 ] int 
  count1          2    3[BANK0 ] int 
  i               2    0        int 
  buff            1   11[BANK0 ] unsigned char 
  ocr             1    8[BANK0 ] unsigned char 
  buff_i          1    7[BANK0 ] unsigned char 
  stat            1    2[BANK0 ] unsigned char 
 Return value:  Size  Location     Type
                  1    wreg      unsigned char 
 Registers used:
		wreg, fsr1l, fsr1h, status,2, status,0, tblptrl, tblptrh, tblptru, cstack
 Tracked objects:
		On entry : 
		On exit  : 
		Unchanged: 
 Data sizes:     COMRAM   BANK0   BANK1   BANK2   BANK3   BANK4   BANK5   BANK6   BANK7
      Params:         0       0       0       0       0       0       0       0       0
      Locals:         0      12       0       0       0       0       0       0       0
      Temps:          1       0       0       0       0       0       0       0       0
      Totals:         1      12       0       0       0       0       0       0       0
Total ram usage:       13 bytes
 Hardware stack levels used:    1
 Hardware stack levels required when called:    7
 This function calls:
		_command
		_dummy_clocks
		_escreve_frase_ram_lcd
		_posicao_cursor_lcd
		_proceed
		_response
		_sdc_reset
 This function is called by:
		_disk_initialize
 This function uses a non-reentrant model


 *************** function _sdc_reset *****************
 Defined at:
		line 238 in file "bibliotecas/diskio.c"
 Parameters:    Size  Location     Type
		None
 Auto vars:     Size  Location     Type
  teste          10    0        unsigned char [10]
  count           2   40[COMRAM] int 
  count_nosd      2   38[COMRAM] int 
  i               2    0        int 
  receive         2    0        unsigned int 
  buff            1   42[COMRAM] unsigned char 
  stat            1    0        unsigned char 
 Return value:  Size  Location     Type
                  1    wreg      void 
 Registers used:
		wreg, fsr1l, fsr1h, status,2, status,0, tblptrl, tblptrh, tblptru, cstack
 Tracked objects:
		On entry : 
		On exit  : 
		Unchanged: 
 Data sizes:     COMRAM   BANK0   BANK1   BANK2   BANK3   BANK4   BANK5   BANK6   BANK7
      Params:         0       0       0       0       0       0       0       0       0
      Locals:         7       0       0       0       0       0       0       0       0
      Temps:          0       0       0       0       0       0       0       0       0
      Totals:         7       0       0       0       0       0       0       0       0
Total ram usage:        7 bytes
 Hardware stack levels used:    1
 Hardware stack levels required when called:    6
 This function calls:
		_command
		_escreve_frase_ram_lcd
		_posicao_cursor_lcd
		_proceed
		_response
 This function is called by:
		_sdc_disk_initialize
 This function uses a non-reentrant model


 *************** function _posicao_cursor_lcd *****************
 Defined at:
		line 271 in file "bibliotecas/display_lcd.c"
 Parameters:    Size  Location     Type
  linha           1    wreg     unsigned char 
  coluna          1   27[COMRAM] unsigned char 
 Auto vars:     Size  Location     Type
  linha           1   28[COMRAM] unsigned char 
  endereco        1   29[COMRAM] unsigned char 
 Return value:  Size  Location     Type
                  1    wreg      void 
 Registers used:
		wreg, status,2, status,0, cstack
 Tracked objects:
		On entry : 
		On exit  : 
		Unchanged: 
 Data sizes:     COMRAM   BANK0   BANK1   BANK2   BANK3   BANK4   BANK5   BANK6   BANK7
      Params:         1       0       0       0       0       0       0       0       0
      Locals:         2       0       0       0       0       0       0       0       0
      Temps:          0       0       0       0       0       0       0       0       0
      Totals:         3       0       0       0       0       0       0       0       0
Total ram usage:        3 bytes
 Hardware stack levels used:    1
 Hardware stack levels required when called:    5
 This function calls:
		_endereco_cursor_lcd
 This function is called by:
		_sdc_reset
		_sdc_disk_initialize
		_mensagem_inicial
		_troca_de_tela
 This function uses a non-reentrant model


 *************** function _endereco_cursor_lcd *****************
 Defined at:
		line 218 in file "bibliotecas/display_lcd.c"
 Parameters:    Size  Location     Type
  endereco        1    wreg     unsigned char 
 Auto vars:     Size  Location     Type
  endereco        1   26[COMRAM] unsigned char 
 Return value:  Size  Location     Type
                  1    wreg      void 
 Registers used:
		wreg, status,2, status,0, cstack
 Tracked objects:
		On entry : 
		On exit  : 
		Unchanged: 
 Data sizes:     COMRAM   BANK0   BANK1   BANK2   BANK3   BANK4   BANK5   BANK6   BANK7
      Params:         0       0       0       0       0       0       0       0       0
      Locals:         1       0       0       0       0       0       0       0       0
      Temps:          0       0       0       0       0       0       0       0       0
      Totals:         1       0       0       0       0       0       0       0       0
Total ram usage:        1 bytes
 Hardware stack levels used:    1
 Hardware stack levels required when called:    4
 This function calls:
		_delay
 This function is called by:
		_posicao_cursor_lcd
 This function uses a non-reentrant model


 *************** function _escreve_frase_ram_lcd *****************
 Defined at:
		line 445 in file "bibliotecas/display_lcd.c"
 Parameters:    Size  Location     Type
  buffer          2   27[COMRAM] PTR unsigned char 
		 -> STR_33(2), STR_32(7), STR_31(14), STR_30(8), 
		 -> STR_29(17), STR_28(8), STR_27(16), STR_26(4), 
		 -> STR_25(4), STR_24(5), STR_23(5), mensagem_inicial@msg_dois(17), 
		 -> mensagem_inicial@msg_linha_um(17), NULL(0), STR_12(9), STR_11(10), 
		 -> STR_10(10), STR_9(14), STR_8(21), STR_7(15), 
		 -> rawFix(2), rawLongitude(13), rawLatitude(13), escreve_inteiro_lcd@texto(7), 
		 -> STR_4(11), STR_3(10), STR_2(16), STR_1(11), 
 Auto vars:     Size  Location     Type
		None
 Return value:  Size  Location     Type
                  1    wreg      void 
 Registers used:
		wreg, fsr1l, fsr1h, status,2, status,0, tblptrl, tblptrh, tblptru, cstack
 Tracked objects:
		On entry : 
		On exit  : 
		Unchanged: 
 Data sizes:     COMRAM   BANK0   BANK1   BANK2   BANK3   BANK4   BANK5   BANK6   BANK7
      Params:         2       0       0       0       0       0       0       0       0
      Locals:         0       0       0       0       0       0       0       0       0
      Temps:          0       0       0       0       0       0       0       0       0
      Totals:         2       0       0       0       0       0       0       0       0
Total ram usage:        2 bytes
 Hardware stack levels used:    1
 Hardware stack levels required when called:    5
 This function calls:
		_escreve_caractere_lcd
 This function is called by:
		_sdc_reset
		_sdc_disk_initialize
		_escreve_inteiro_lcd
		_mensagem_inicial
		_troca_de_tela
 This function uses a non-reentrant model


 *************** function _escreve_caractere_lcd *****************
 Defined at:
		line 323 in file "bibliotecas/display_lcd.c"
 Parameters:    Size  Location     Type
  data            1    wreg     unsigned char 
 Auto vars:     Size  Location     Type
  data            1   26[COMRAM] unsigned char 
 Return value:  Size  Location     Type
                  1    wreg      void 
 Registers used:
		wreg, status,2, status,0, cstack
 Tracked objects:
		On entry : 
		On exit  : 
		Unchanged: 
 Data sizes:     COMRAM   BANK0   BANK1   BANK2   BANK3   BANK4   BANK5   BANK6   BANK7
      Params:         0       0       0       0       0       0       0       0       0
      Locals:         1       0       0       0       0       0       0       0       0
      Temps:          0       0       0       0       0       0       0       0       0
      Totals:         1       0       0       0       0       0       0       0       0
Total ram usage:        1 bytes
 Hardware stack levels used:    1
 Hardware stack levels required when called:    4
 This function calls:
		_delay
 This function is called by:
		_escreve_frase_ram_lcd
 This function uses a non-reentrant model


 *************** function _delay *****************
 Defined at:
		line 45 in file "bibliotecas/display_lcd.c"
 Parameters:    Size  Location     Type
		None
 Auto vars:     Size  Location     Type
  contador_int    1   25[COMRAM] unsigned char 
  contador_ext    1   24[COMRAM] unsigned char 
 Return value:  Size  Location     Type
                  1    wreg      void 
 Registers used:
		wreg, status,2, status,0
 Tracked objects:
		On entry : 
		On exit  : 
		Unchanged: 
 Data sizes:     COMRAM   BANK0   BANK1   BANK2   BANK3   BANK4   BANK5   BANK6   BANK7
      Params:         0       0       0       0       0       0       0       0       0
      Locals:         2       0       0       0       0       0       0       0       0
      Temps:          0       0       0       0       0       0       0       0       0
      Totals:         2       0       0       0       0       0       0       0       0
Total ram usage:        2 bytes
 Hardware stack levels used:    1
 Hardware stack levels required when called:    3
 This function calls:
		Nothing
 This function is called by:
		_init_lcd
		_escreve_cmd_lcd
		_endereco_cursor_lcd
		_escreve_caractere_lcd
 This function uses a non-reentrant model


 *************** function _check_fs *****************
 Defined at:
		line 624 in file "bibliotecas/tff.c"
 Parameters:    Size  Location     Type
  sect            4   19[BANK0 ] unsigned long 
 Auto vars:     Size  Location     Type
  fs              2   23[BANK0 ] PTR struct _FATFS
		 -> NULL(0), fs(544), 
 Return value:  Size  Location     Type
                  1    wreg      unsigned char 
 Registers used:
		wreg, fsr1l, fsr1h, fsr2l, fsr2h, status,2, status,0, tblptrl, tblptrh, tblptru, cstack
 Tracked objects:
		On entry : 
		On exit  : 
		Unchanged: 
 Data sizes:     COMRAM   BANK0   BANK1   BANK2   BANK3   BANK4   BANK5   BANK6   BANK7
      Params:         0       4       0       0       0       0       0       0       0
      Locals:         0       2       0       0       0       0       0       0       0
      Temps:          2       0       0       0       0       0       0       0       0
      Totals:         2       6       0       0       0       0       0       0       0
Total ram usage:        8 bytes
 Hardware stack levels used:    1
 Hardware stack levels required when called:    8
 This function calls:
		_disk_read
		_memcmp
 This function is called by:
		_auto_mount
 This function uses a non-reentrant model


 *************** function _memcmp *****************
 Defined at:
		line 3 in file "C:\Program Files\Microchip\xc8\v2.30\pic\sources\c90\common\memcmp.c"
 Parameters:    Size  Location     Type
  s1              2   24[COMRAM] PTR const void 
		 -> fs.win(512), NULL(0), fs(544), 
  s2              2   26[COMRAM] PTR const void 
		 -> f_opendir@fn(12), f_open@fn(12), STR_21(4), 
  n               2   28[COMRAM] unsigned int 
 Auto vars:     Size  Location     Type
		None
 Return value:  Size  Location     Type
                  2   24[COMRAM] int 
 Registers used:
		wreg, fsr1l, fsr1h, fsr2l, fsr2h, status,2, status,0, tblptrl, tblptrh, tblptru
 Tracked objects:
		On entry : 
		On exit  : 
		Unchanged: 
 Data sizes:     COMRAM   BANK0   BANK1   BANK2   BANK3   BANK4   BANK5   BANK6   BANK7
      Params:         6       0       0       0       0       0       0       0       0
      Locals:         0       0       0       0       0       0       0       0       0
      Temps:          2       0       0       0       0       0       0       0       0
      Totals:         8       0       0       0       0       0       0       0       0
Total ram usage:        8 bytes
 Hardware stack levels used:    1
 Hardware stack levels required when called:    3
 This function calls:
		Nothing
 This function is called by:
		_trace_path
		_check_fs
 This function uses a non-reentrant model


 *************** function ___lmul *****************
 Defined at:
		line 15 in file "C:\Program Files\Microchip\xc8\v2.30\pic\sources\c90\common\Umul32.c"
 Parameters:    Size  Location     Type
  multiplier      4   24[COMRAM] unsigned long 
  multiplicand    4   28[COMRAM] unsigned long 
 Auto vars:     Size  Location     Type
  product         4   32[COMRAM] unsigned long 
 Return value:  Size  Location     Type
                  4   24[COMRAM] unsigned long 
 Registers used:
		wreg, status,2, status,0
 Tracked objects:
		On entry : 
		On exit  : 
		Unchanged: 
 Data sizes:     COMRAM   BANK0   BANK1   BANK2   BANK3   BANK4   BANK5   BANK6   BANK7
      Params:         8       0       0       0       0       0       0       0       0
      Locals:         4       0       0       0       0       0       0       0       0
      Temps:          0       0       0       0       0       0       0       0       0
      Totals:        12       0       0       0       0       0       0       0       0
Total ram usage:       12 bytes
 Hardware stack levels used:    1
 Hardware stack levels required when called:    3
 This function calls:
		Nothing
 This function is called by:
		_clust2sect
		_auto_mount
 This function uses a non-reentrant model


 *************** function _f_mount *****************
 Defined at:
		line 794 in file "bibliotecas/tff.c"
 Parameters:    Size  Location     Type
  drv             1    wreg     unsigned char 
  fs              2   24[COMRAM] PTR struct _FATFS
		 -> fs(544), 
 Auto vars:     Size  Location     Type
  drv             1   26[COMRAM] unsigned char 
 Return value:  Size  Location     Type
                  1    wreg      enum E3236
 Registers used:
		wreg, fsr2l, fsr2h, status,2, status,0
 Tracked objects:
		On entry : 
		On exit  : 
		Unchanged: 
 Data sizes:     COMRAM   BANK0   BANK1   BANK2   BANK3   BANK4   BANK5   BANK6   BANK7
      Params:         2       0       0       0       0       0       0       0       0
      Locals:         1       0       0       0       0       0       0       0       0
      Temps:          0       0       0       0       0       0       0       0       0
      Totals:         3       0       0       0       0       0       0       0       0
Total ram usage:        3 bytes
 Hardware stack levels used:    1
 Hardware stack levels required when called:    3
 This function calls:
		Nothing
 This function is called by:
		_escrita_sdcard
 This function uses a non-reentrant model


 *************** function _f_lseek *****************
 Defined at:
		line 1140 in file "bibliotecas/tff.c"
 Parameters:    Size  Location     Type
  fp              2   78[BANK0 ] PTR struct _FIL
		 -> fil(28), 
  ofs             4   80[BANK0 ] unsigned long 
 Auto vars:     Size  Location     Type
  csize           4  105[BANK0 ] unsigned long 
  ifptr           4  101[BANK0 ] unsigned long 
  clust           2  109[BANK0 ] unsigned short 
  res             1  100[BANK0 ] enum E155
 Return value:  Size  Location     Type
                  1    wreg      enum E3236
 Registers used:
		wreg, fsr1l, fsr1h, fsr2l, fsr2h, status,2, status,0, prodl, prodh, cstack
 Tracked objects:
		On entry : 
		On exit  : 
		Unchanged: 
 Data sizes:     COMRAM   BANK0   BANK1   BANK2   BANK3   BANK4   BANK5   BANK6   BANK7
      Params:         0       6       0       0       0       0       0       0       0
      Locals:         0      11       0       0       0       0       0       0       0
      Temps:          0      16       0       0       0       0       0       0       0
      Totals:         0      33       0       0       0       0       0       0       0
Total ram usage:       33 bytes
 Hardware stack levels used:    1
 Hardware stack levels required when called:   11
 This function calls:
		___lldiv
		_create_chain
		_get_cluster
		_validate
 This function is called by:
		_escrita_sdcard
 This function uses a non-reentrant model


 *************** function _create_chain *****************
 Defined at:
		line 283 in file "bibliotecas/tff.c"
 Parameters:    Size  Location     Type
  clust           2   64[BANK0 ] unsigned short 
 Auto vars:     Size  Location     Type
  ncl             2   76[BANK0 ] unsigned short 
  scl             2   74[BANK0 ] unsigned short 
  cstat           2   72[BANK0 ] unsigned short 
  fs              2   70[BANK0 ] PTR struct _FATFS
		 -> NULL(0), fs(544), 
  mcl             2   68[BANK0 ] unsigned short 
 Return value:  Size  Location     Type
                  2   64[BANK0 ] unsigned short 
 Registers used:
		wreg, fsr2l, fsr2h, status,2, status,0, prodl, prodh, cstack
 Tracked objects:
		On entry : 
		On exit  : 
		Unchanged: 
 Data sizes:     COMRAM   BANK0   BANK1   BANK2   BANK3   BANK4   BANK5   BANK6   BANK7
      Params:         0       2       0       0       0       0       0       0       0
      Locals:         0      10       0       0       0       0       0       0       0
      Temps:          0       2       0       0       0       0       0       0       0
      Totals:         0      14       0       0       0       0       0       0       0
Total ram usage:       14 bytes
 Hardware stack levels used:    1
 Hardware stack levels required when called:   10
 This function calls:
		_get_cluster
		_put_cluster
 This function is called by:
		_reserve_direntry
		_f_write
		_f_lseek
 This function uses a non-reentrant model


 *************** function _put_cluster *****************
 Defined at:
		line 198 in file "bibliotecas/tff.c"
 Parameters:    Size  Location     Type
  clust           2   40[BANK0 ] unsigned short 
  val             2   42[BANK0 ] unsigned short 
 Auto vars:     Size  Location     Type
  fatsect         4   54[BANK0 ] unsigned long 
  fs              2   62[BANK0 ] PTR struct _FATFS
		 -> NULL(0), fs(544), 
  p               2   60[BANK0 ] PTR unsigned char 
		 -> fs.win(512), NULL(0), fs(544), 
  bc              2   58[BANK0 ] unsigned short 
 Return value:  Size  Location     Type
                  1    wreg      enum E105
 Registers used:
		wreg, fsr2l, fsr2h, status,2, status,0, prodl, prodh, cstack
 Tracked objects:
		On entry : 
		On exit  : 
		Unchanged: 
 Data sizes:     COMRAM   BANK0   BANK1   BANK2   BANK3   BANK4   BANK5   BANK6   BANK7
      Params:         0       4       0       0       0       0       0       0       0
      Locals:         0      14       0       0       0       0       0       0       0
      Temps:          0       6       0       0       0       0       0       0       0
      Totals:         0      24       0       0       0       0       0       0       0
Total ram usage:       24 bytes
 Hardware stack levels used:    1
 Hardware stack levels required when called:    9
 This function calls:
		___wmul
		_move_window
 This function is called by:
		_remove_chain
		_create_chain
 This function uses a non-reentrant model


 *************** function _get_cluster *****************
 Defined at:
		line 155 in file "bibliotecas/tff.c"
 Parameters:    Size  Location     Type
  clust           2   48[COMRAM] unsigned short 
 Auto vars:     Size  Location     Type
  fatsect         4   51[BANK0 ] unsigned long 
  fs              2   57[BANK0 ] PTR struct _FATFS
		 -> NULL(0), fs(544), 
  bc              2   55[BANK0 ] unsigned short 
  wc              2   49[BANK0 ] unsigned short 
 Return value:  Size  Location     Type
                  2   48[COMRAM] unsigned short 
 Registers used:
		wreg, fsr2l, fsr2h, status,2, status,0, prodl, prodh, cstack
 Tracked objects:
		On entry : 
		On exit  : 
		Unchanged: 
 Data sizes:     COMRAM   BANK0   BANK1   BANK2   BANK3   BANK4   BANK5   BANK6   BANK7
      Params:         2       0       0       0       0       0       0       0       0
      Locals:         0      10       0       0       0       0       0       0       0
      Temps:          0       9       0       0       0       0       0       0       0
      Totals:         2      19       0       0       0       0       0       0       0
Total ram usage:       21 bytes
 Hardware stack levels used:    1
 Hardware stack levels required when called:    9
 This function calls:
		___wmul
		_move_window
 This function is called by:
		_remove_chain
		_create_chain
		_next_dir_entry
		_f_lseek
		_f_read
 This function uses a non-reentrant model


 *************** function ___wmul *****************
 Defined at:
		line 15 in file "C:\Program Files\Microchip\xc8\v2.30\pic\sources\c90\common\Umul16.c"
 Parameters:    Size  Location     Type
  multiplier      2   24[COMRAM] unsigned int 
  multiplicand    2   26[COMRAM] unsigned int 
 Auto vars:     Size  Location     Type
  product         2   28[COMRAM] unsigned int 
 Return value:  Size  Location     Type
                  2   24[COMRAM] unsigned int 
 Registers used:
		wreg, status,2, status,0, prodl, prodh
 Tracked objects:
		On entry : 
		On exit  : 
		Unchanged: 
 Data sizes:     COMRAM   BANK0   BANK1   BANK2   BANK3   BANK4   BANK5   BANK6   BANK7
      Params:         4       0       0       0       0       0       0       0       0
      Locals:         2       0       0       0       0       0       0       0       0
      Temps:          0       0       0       0       0       0       0       0       0
      Totals:         6       0       0       0       0       0       0       0       0
Total ram usage:        6 bytes
 Hardware stack levels used:    1
 Hardware stack levels required when called:    3
 This function calls:
		Nothing
 This function is called by:
		_get_cluster
		_put_cluster
		_fprintf
		_atoi
 This function uses a non-reentrant model


 *************** function ___lldiv *****************
 Defined at:
		line 7 in file "C:\Program Files\Microchip\xc8\v2.30\pic\sources\c90\common\__lldiv.c"
 Parameters:    Size  Location     Type
  dividend        4   24[COMRAM] unsigned long 
  divisor         4   28[COMRAM] unsigned long 
 Auto vars:     Size  Location     Type
  quotient        4   32[COMRAM] unsigned long 
  counter         1   36[COMRAM] unsigned char 
 Return value:  Size  Location     Type
                  4   24[COMRAM] unsigned long 
 Registers used:
		wreg, status,2, status,0
 Tracked objects:
		On entry : 
		On exit  : 
		Unchanged: 
 Data sizes:     COMRAM   BANK0   BANK1   BANK2   BANK3   BANK4   BANK5   BANK6   BANK7
      Params:         8       0       0       0       0       0       0       0       0
      Locals:         5       0       0       0       0       0       0       0       0
      Temps:          0       0       0       0       0       0       0       0       0
      Totals:        13       0       0       0       0       0       0       0       0
Total ram usage:       13 bytes
 Hardware stack levels used:    1
 Hardware stack levels required when called:    3
 This function calls:
		Nothing
 This function is called by:
		_auto_mount
		_f_lseek
		_fprintf
 This function uses a non-reentrant model


 *************** function _f_close *****************
 Defined at:
		line 1116 in file "bibliotecas/tff.c"
 Parameters:    Size  Location     Type
  fp              2   49[BANK0 ] PTR struct _FIL
		 -> fil(28), 
 Auto vars:     Size  Location     Type
  res             1   51[BANK0 ] enum E155
 Return value:  Size  Location     Type
                  1    wreg      enum E3236
 Registers used:
		wreg, fsr1l, fsr1h, fsr2l, fsr2h, status,2, status,0, prodl, prodh, cstack
 Tracked objects:
		On entry : 
		On exit  : 
		Unchanged: 
 Data sizes:     COMRAM   BANK0   BANK1   BANK2   BANK3   BANK4   BANK5   BANK6   BANK7
      Params:         0       2       0       0       0       0       0       0       0
      Locals:         0       1       0       0       0       0       0       0       0
      Temps:          0       0       0       0       0       0       0       0       0
      Totals:         0       3       0       0       0       0       0       0       0
Total ram usage:        3 bytes
 Hardware stack levels used:    1
 Hardware stack levels required when called:   11
 This function calls:
		_f_sync
 This function is called by:
		_escrita_sdcard
 This function uses a non-reentrant model


 *************** function _f_sync *****************
 Defined at:
		line 1077 in file "bibliotecas/tff.c"
 Parameters:    Size  Location     Type
  fp              2   40[BANK0 ] PTR struct _FIL
		 -> fil(28), 
 Auto vars:     Size  Location     Type
  tim             4   42[BANK0 ] unsigned long 
  dir             2   47[BANK0 ] PTR unsigned char 
		 -> NULL(0), fs(544), 
  res             1   46[BANK0 ] enum E155
 Return value:  Size  Location     Type
                  1    wreg      enum E155
 Registers used:
		wreg, fsr1l, fsr1h, fsr2l, fsr2h, status,2, status,0, prodl, prodh, cstack
 Tracked objects:
		On entry : 
		On exit  : 
		Unchanged: 
 Data sizes:     COMRAM   BANK0   BANK1   BANK2   BANK3   BANK4   BANK5   BANK6   BANK7
      Params:         0       2       0       0       0       0       0       0       0
      Locals:         0       7       0       0       0       0       0       0       0
      Temps:          0       0       0       0       0       0       0       0       0
      Totals:         0       9       0       0       0       0       0       0       0
Total ram usage:        9 bytes
 Hardware stack levels used:    1
 Hardware stack levels required when called:   10
 This function calls:
		_get_fattime
		_move_window
		_sync
		_validate
 This function is called by:
		_f_close
 This function uses a non-reentrant model


 *************** function _validate *****************
 Defined at:
		line 767 in file "bibliotecas/tff.c"
 Parameters:    Size  Location     Type
  fs              2   30[COMRAM] PTR const struct _FATFS
		 -> NULL(0), fs(544), 
  id              2   32[COMRAM] unsigned short 
 Auto vars:     Size  Location     Type
		None
 Return value:  Size  Location     Type
                  1    wreg      enum E155
 Registers used:
		wreg, fsr2l, fsr2h, status,2, status,0, cstack
 Tracked objects:
		On entry : 
		On exit  : 
		Unchanged: 
 Data sizes:     COMRAM   BANK0   BANK1   BANK2   BANK3   BANK4   BANK5   BANK6   BANK7
      Params:         4       0       0       0       0       0       0       0       0
      Locals:         0       0       0       0       0       0       0       0       0
      Temps:          2       0       0       0       0       0       0       0       0
      Totals:         6       0       0       0       0       0       0       0       0
Total ram usage:        6 bytes
 Hardware stack levels used:    1
 Hardware stack levels required when called:    5
 This function calls:
		_disk_status
 This function is called by:
		_f_write
		_f_sync
		_f_lseek
		_f_read
 This function uses a non-reentrant model


 *************** function _disk_status *****************
 Defined at:
		line 27 in file "bibliotecas/diskio.c"
 Parameters:    Size  Location     Type
  pdrv            1    wreg     unsigned char 
 Auto vars:     Size  Location     Type
  pdrv            1   28[COMRAM] unsigned char 
  result          2    0        int 
  stat            1   29[COMRAM] unsigned char 
 Return value:  Size  Location     Type
                  1    wreg      unsigned char 
 Registers used:
		wreg, status,2, status,0, cstack
 Tracked objects:
		On entry : 
		On exit  : 
		Unchanged: 
 Data sizes:     COMRAM   BANK0   BANK1   BANK2   BANK3   BANK4   BANK5   BANK6   BANK7
      Params:         0       0       0       0       0       0       0       0       0
      Locals:         4       0       0       0       0       0       0       0       0
      Temps:          0       0       0       0       0       0       0       0       0
      Totals:         4       0       0       0       0       0       0       0       0
Total ram usage:        4 bytes
 Hardware stack levels used:    1
 Hardware stack levels required when called:    4
 This function calls:
		_sdc_disk_status
 This function is called by:
		_auto_mount
		_validate
 This function uses a non-reentrant model


 *************** function _sdc_disk_status *****************
 Defined at:
		line 588 in file "bibliotecas/diskio.c"
 Parameters:    Size  Location     Type
  pdrv            1    wreg     unsigned char 
 Auto vars:     Size  Location     Type
  pdrv            1   25[COMRAM] unsigned char 
  stat            1    0        unsigned char 
  cont            1    0        unsigned char 
  buff            1    0        unsigned char 
 Return value:  Size  Location     Type
                  1    wreg      unsigned char 
 Registers used:
		wreg, status,2
 Tracked objects:
		On entry : 
		On exit  : 
		Unchanged: 
 Data sizes:     COMRAM   BANK0   BANK1   BANK2   BANK3   BANK4   BANK5   BANK6   BANK7
      Params:         0       0       0       0       0       0       0       0       0
      Locals:         2       0       0       0       0       0       0       0       0
      Temps:          0       0       0       0       0       0       0       0       0
      Totals:         2       0       0       0       0       0       0       0       0
Total ram usage:        2 bytes
 Hardware stack levels used:    1
 Hardware stack levels required when called:    3
 This function calls:
		Nothing
 This function is called by:
		_disk_status
 This function uses a non-reentrant model


 *************** function _sync *****************
 Defined at:
		line 119 in file "bibliotecas/tff.c"
 Parameters:    Size  Location     Type
		None
 Auto vars:     Size  Location     Type
  fs              2   48[COMRAM] PTR struct _FATFS
		 -> NULL(0), fs(544), 
 Return value:  Size  Location     Type
                  1    wreg      enum E155
 Registers used:
		wreg, fsr2l, fsr2h, status,2, status,0, cstack
 Tracked objects:
		On entry : 
		On exit  : 
		Unchanged: 
 Data sizes:     COMRAM   BANK0   BANK1   BANK2   BANK3   BANK4   BANK5   BANK6   BANK7
      Params:         0       0       0       0       0       0       0       0       0
      Locals:         2       0       0       0       0       0       0       0       0
      Temps:          0       0       0       0       0       0       0       0       0
      Totals:         2       0       0       0       0       0       0       0       0
Total ram usage:        2 bytes
 Hardware stack levels used:    1
 Hardware stack levels required when called:    9
 This function calls:
		_disk_ioctl
		_move_window
 This function is called by:
		_f_sync
 This function uses a non-reentrant model


 *************** function _move_window *****************
 Defined at:
		line 77 in file "bibliotecas/tff.c"
 Parameters:    Size  Location     Type
  sector          4   19[BANK0 ] unsigned long 
 Auto vars:     Size  Location     Type
  n               1   33[BANK0 ] unsigned char 
  wsect           4   34[BANK0 ] unsigned long 
  fs              2   38[BANK0 ] PTR struct _FATFS
		 -> NULL(0), fs(544), 
 Return value:  Size  Location     Type
                  1    wreg      enum E105
 Registers used:
		wreg, fsr2l, fsr2h, status,2, status,0, cstack
 Tracked objects:
		On entry : 
		On exit  : 
		Unchanged: 
 Data sizes:     COMRAM   BANK0   BANK1   BANK2   BANK3   BANK4   BANK5   BANK6   BANK7
      Params:         0       4       0       0       0       0       0       0       0
      Locals:         0       7       0       0       0       0       0       0       0
      Temps:          0      10       0       0       0       0       0       0       0
      Totals:         0      21       0       0       0       0       0       0       0
Total ram usage:       21 bytes
 Hardware stack levels used:    1
 Hardware stack levels required when called:    8
 This function calls:
		_disk_read
		_disk_write
 This function is called by:
		_sync
		_get_cluster
		_put_cluster
		_trace_path
		_reserve_direntry
		_f_open
		_f_write
		_f_sync
		_f_read
 This function uses a non-reentrant model


 *************** function _disk_write *****************
 Defined at:
		line 150 in file "bibliotecas/diskio.c"
 Parameters:    Size  Location     Type
  pdrv            1    wreg     unsigned char 
  buff            2    8[BANK0 ] PTR const unsigned char 
		 -> fs.win(512), fputc@c(1), NULL(0), fs(544), 
  sector          4   10[BANK0 ] unsigned long 
  count           1   14[BANK0 ] unsigned char 
 Auto vars:     Size  Location     Type
  pdrv            1   15[BANK0 ] unsigned char 
  result          2   16[BANK0 ] int 
  res             1   18[BANK0 ] enum E25
 Return value:  Size  Location     Type
                  1    wreg      enum E25
 Registers used:
		wreg, fsr2l, fsr2h, status,2, status,0, cstack
 Tracked objects:
		On entry : 
		On exit  : 
		Unchanged: 
 Data sizes:     COMRAM   BANK0   BANK1   BANK2   BANK3   BANK4   BANK5   BANK6   BANK7
      Params:         0       7       0       0       0       0       0       0       0
      Locals:         0       4       0       0       0       0       0       0       0
      Temps:          1       0       0       0       0       0       0       0       0
      Totals:         1      11       0       0       0       0       0       0       0
Total ram usage:       12 bytes
 Hardware stack levels used:    1
 Hardware stack levels required when called:    7
 This function calls:
		_sdc_disk_write
 This function is called by:
		_move_window
		_reserve_direntry
		_f_write
 This function uses a non-reentrant model


 *************** function _sdc_disk_write *****************
 Defined at:
		line 509 in file "bibliotecas/diskio.c"
 Parameters:    Size  Location     Type
  p_buff          2   36[COMRAM] PTR const unsigned char 
		 -> fs.win(512), fputc@c(1), NULL(0), fs(544), 
  sector          4   38[COMRAM] unsigned long 
  count           1   42[COMRAM] unsigned char 
 Auto vars:     Size  Location     Type
  j               2    5[BANK0 ] int 
  count1          2    2[BANK0 ] int 
  i               2    0        int 
  buff            1    7[BANK0 ] unsigned char 
  res             1    4[BANK0 ] enum E25
 Return value:  Size  Location     Type
                  1    wreg      enum E25
 Registers used:
		wreg, fsr2l, fsr2h, status,2, status,0, cstack
 Tracked objects:
		On entry : 
		On exit  : 
		Unchanged: 
 Data sizes:     COMRAM   BANK0   BANK1   BANK2   BANK3   BANK4   BANK5   BANK6   BANK7
      Params:         7       0       0       0       0       0       0       0       0
      Locals:         0       8       0       0       0       0       0       0       0
      Temps:          4       0       0       0       0       0       0       0       0
      Totals:        11       8       0       0       0       0       0       0       0
Total ram usage:       19 bytes
 Hardware stack levels used:    1
 Hardware stack levels required when called:    6
 This function calls:
		_command
		_dummy_clocks
		_escreve_SPI
		_leitura_SPI
		_proceed
		_response
 This function is called by:
		_disk_write
 This function uses a non-reentrant model


 *************** function _disk_read *****************
 Defined at:
		line 97 in file "bibliotecas/diskio.c"
 Parameters:    Size  Location     Type
  pdrv            1    wreg     unsigned char 
  buff            2    8[BANK0 ] PTR unsigned char 
		 -> NULL(0), dado_arquivo(20), fs(544), 
  sector          4   10[BANK0 ] unsigned long 
  count           1   14[BANK0 ] unsigned char 
 Auto vars:     Size  Location     Type
  pdrv            1   15[BANK0 ] unsigned char 
  result          2   16[BANK0 ] int 
  res             1   18[BANK0 ] enum E25
 Return value:  Size  Location     Type
                  1    wreg      enum E25
 Registers used:
		wreg, fsr2l, fsr2h, status,2, status,0, cstack
 Tracked objects:
		On entry : 
		On exit  : 
		Unchanged: 
 Data sizes:     COMRAM   BANK0   BANK1   BANK2   BANK3   BANK4   BANK5   BANK6   BANK7
      Params:         0       7       0       0       0       0       0       0       0
      Locals:         0       4       0       0       0       0       0       0       0
      Temps:          1       0       0       0       0       0       0       0       0
      Totals:         1      11       0       0       0       0       0       0       0
Total ram usage:       12 bytes
 Hardware stack levels used:    1
 Hardware stack levels required when called:    7
 This function calls:
		_sdc_disk_read
 This function is called by:
		_move_window
		_check_fs
		_f_read
 This function uses a non-reentrant model


 *************** function _sdc_disk_read *****************
 Defined at:
		line 439 in file "bibliotecas/diskio.c"
 Parameters:    Size  Location     Type
  p_buff          2   36[COMRAM] PTR unsigned char 
		 -> NULL(0), dado_arquivo(20), fs(544), 
  sector          4   38[COMRAM] unsigned long 
  count           1   42[COMRAM] unsigned char 
 Auto vars:     Size  Location     Type
  start_add       4    1[BANK0 ] unsigned long 
  length          2    5[BANK0 ] int 
  count1          2    0        int 
  i               2    0        int 
  buff            1    7[BANK0 ] unsigned char 
  ptr             1    0        unsigned char 
  res             1    0        enum E25
 Return value:  Size  Location     Type
                  1    wreg      enum E25
 Registers used:
		wreg, fsr2l, fsr2h, status,2, status,0, cstack
 Tracked objects:
		On entry : 
		On exit  : 
		Unchanged: 
 Data sizes:     COMRAM   BANK0   BANK1   BANK2   BANK3   BANK4   BANK5   BANK6   BANK7
      Params:         7       0       0       0       0       0       0       0       0
      Locals:         0       8       0       0       0       0       0       0       0
      Temps:          4       0       0       0       0       0       0       0       0
      Totals:        11       8       0       0       0       0       0       0       0
Total ram usage:       19 bytes
 Hardware stack levels used:    1
 Hardware stack levels required when called:    6
 This function calls:
		_command
		_dummy_clocks
		_proceed
		_response
 This function is called by:
		_disk_read
 This function uses a non-reentrant model


 *************** function _response *****************
 Defined at:
		line 59 in file "bibliotecas/SDCard.c"
 Parameters:    Size  Location     Type
		None
 Auto vars:     Size  Location     Type
  buff            1   24[COMRAM] unsigned char 
 Return value:  Size  Location     Type
                  1    wreg      unsigned char 
 Registers used:
		wreg, status,2, cstack
 Tracked objects:
		On entry : 
		On exit  : 
		Unchanged: 
 Data sizes:     COMRAM   BANK0   BANK1   BANK2   BANK3   BANK4   BANK5   BANK6   BANK7
      Params:         0       0       0       0       0       0       0       0       0
      Locals:         1       0       0       0       0       0       0       0       0
      Temps:          0       0       0       0       0       0       0       0       0
      Totals:         1       0       0       0       0       0       0       0       0
Total ram usage:        1 bytes
 Hardware stack levels used:    1
 Hardware stack levels required when called:    4
 This function calls:
		_leitura_SPI
 This function is called by:
		_sdc_reset
		_sdc_disk_initialize
		_sdc_disk_read
		_sdc_disk_write
 This function uses a non-reentrant model


 *************** function _proceed *****************
 Defined at:
		line 92 in file "bibliotecas/SDCard.c"
 Parameters:    Size  Location     Type
		None
 Auto vars:     Size  Location     Type
		None
 Return value:  Size  Location     Type
                  1    wreg      void 
 Registers used:
		wreg, cstack
 Tracked objects:
		On entry : 
		On exit  : 
		Unchanged: 
 Data sizes:     COMRAM   BANK0   BANK1   BANK2   BANK3   BANK4   BANK5   BANK6   BANK7
      Params:         0       0       0       0       0       0       0       0       0
      Locals:         0       0       0       0       0       0       0       0       0
      Temps:          0       0       0       0       0       0       0       0       0
      Totals:         0       0       0       0       0       0       0       0       0
Total ram usage:        0 bytes
 Hardware stack levels used:    1
 Hardware stack levels required when called:    4
 This function calls:
		_escreve_SPI
 This function is called by:
		_sdc_reset
		_sdc_disk_initialize
		_sdc_disk_read
		_sdc_disk_write
 This function uses a non-reentrant model


 *************** function _command *****************
 Defined at:
		line 125 in file "bibliotecas/SDCard.c"
 Parameters:    Size  Location     Type
  CMD             1    wreg     unsigned char 
  arg             4   29[COMRAM] unsigned long 
  CRC             1   33[COMRAM] unsigned char 
 Auto vars:     Size  Location     Type
  CMD             1   34[COMRAM] unsigned char 
  argument        1   35[COMRAM] unsigned char 
 Return value:  Size  Location     Type
                  1    wreg      void 
 Registers used:
		wreg, status,2, status,0, cstack
 Tracked objects:
		On entry : 
		On exit  : 
		Unchanged: 
 Data sizes:     COMRAM   BANK0   BANK1   BANK2   BANK3   BANK4   BANK5   BANK6   BANK7
      Params:         5       0       0       0       0       0       0       0       0
      Locals:         2       0       0       0       0       0       0       0       0
      Temps:          0       0       0       0       0       0       0       0       0
      Totals:         7       0       0       0       0       0       0       0       0
Total ram usage:        7 bytes
 Hardware stack levels used:    1
 Hardware stack levels required when called:    5
 This function calls:
		_dummy_clocks
		_escreve_SPI
		_wait_ready
 This function is called by:
		_sdc_reset
		_sdc_disk_initialize
		_sdc_disk_read
		_sdc_disk_write
 This function uses a non-reentrant model


 *************** function _wait_ready *****************
 Defined at:
		line 105 in file "bibliotecas/SDCard.c"
 Parameters:    Size  Location     Type
		None
 Auto vars:     Size  Location     Type
  msg            10    0        unsigned char [10]
  timeout         4   24[COMRAM] unsigned long 
  res             1   28[COMRAM] unsigned char 
 Return value:  Size  Location     Type
                  1    wreg      unsigned char 
 Registers used:
		wreg, status,2, status,0, cstack
 Tracked objects:
		On entry : 
		On exit  : 
		Unchanged: 
 Data sizes:     COMRAM   BANK0   BANK1   BANK2   BANK3   BANK4   BANK5   BANK6   BANK7
      Params:         0       0       0       0       0       0       0       0       0
      Locals:         5       0       0       0       0       0       0       0       0
      Temps:          0       0       0       0       0       0       0       0       0
      Totals:         5       0       0       0       0       0       0       0       0
Total ram usage:        5 bytes
 Hardware stack levels used:    1
 Hardware stack levels required when called:    4
 This function calls:
		_leitura_SPI
 This function is called by:
		_command
 This function uses a non-reentrant model


 *************** function _escreve_SPI *****************
 Defined at:
		line 97 in file "bibliotecas/SPI.c"
 Parameters:    Size  Location     Type
  dado            1    wreg     unsigned char 
 Auto vars:     Size  Location     Type
  dado            1   25[COMRAM] unsigned char 
  TempVar         1    0        unsigned char 
 Return value:  Size  Location     Type
                  1    wreg      void 
 Registers used:
		wreg
 Tracked objects:
		On entry : 
		On exit  : 
		Unchanged: 
 Data sizes:     COMRAM   BANK0   BANK1   BANK2   BANK3   BANK4   BANK5   BANK6   BANK7
      Params:         0       0       0       0       0       0       0       0       0
      Locals:         2       0       0       0       0       0       0       0       0
      Temps:          0       0       0       0       0       0       0       0       0
      Totals:         2       0       0       0       0       0       0       0       0
Total ram usage:        2 bytes
 Hardware stack levels used:    1
 Hardware stack levels required when called:    3
 This function calls:
		Nothing
 This function is called by:
		_sdc_disk_write
		_proceed
		_command
 This function uses a non-reentrant model


 *************** function _dummy_clocks *****************
 Defined at:
		line 74 in file "bibliotecas/SDCard.c"
 Parameters:    Size  Location     Type
  n               1    wreg     unsigned char 
 Auto vars:     Size  Location     Type
  n               1   26[COMRAM] unsigned char 
  i               2   27[COMRAM] unsigned int 
 Return value:  Size  Location     Type
                  1    wreg      void 
 Registers used:
		wreg, status,2, status,0, cstack
 Tracked objects:
		On entry : 
		On exit  : 
		Unchanged: 
 Data sizes:     COMRAM   BANK0   BANK1   BANK2   BANK3   BANK4   BANK5   BANK6   BANK7
      Params:         0       0       0       0       0       0       0       0       0
      Locals:         3       0       0       0       0       0       0       0       0
      Temps:          2       0       0       0       0       0       0       0       0
      Totals:         5       0       0       0       0       0       0       0       0
Total ram usage:        5 bytes
 Hardware stack levels used:    1
 Hardware stack levels required when called:    4
 This function calls:
		_leitura_SPI
 This function is called by:
		_sdc_disk_initialize
		_sdc_disk_read
		_sdc_disk_write
		_command
 This function uses a non-reentrant model


 *************** function _leitura_SPI *****************
 Defined at:
		line 82 in file "bibliotecas/SPI.c"
 Parameters:    Size  Location     Type
		None
 Auto vars:     Size  Location     Type
		None
 Return value:  Size  Location     Type
                  1    wreg      unsigned char 
 Registers used:
		wreg, status,2
 Tracked objects:
		On entry : 
		On exit  : 
		Unchanged: 
 Data sizes:     COMRAM   BANK0   BANK1   BANK2   BANK3   BANK4   BANK5   BANK6   BANK7
      Params:         0       0       0       0       0       0       0       0       0
      Locals:         0       0       0       0       0       0       0       0       0
      Temps:          0       0       0       0       0       0       0       0       0
      Totals:         0       0       0       0       0       0       0       0       0
Total ram usage:        0 bytes
 Hardware stack levels used:    1
 Hardware stack levels required when called:    3
 This function calls:
		Nothing
 This function is called by:
		_sdc_disk_write
		_response
		_dummy_clocks
		_wait_ready
 This function uses a non-reentrant model


 *************** function _disk_ioctl *****************
 Defined at:
		line 198 in file "bibliotecas/diskio.c"
 Parameters:    Size  Location     Type
  pdrv            1    wreg     unsigned char 
  cmd             1   24[COMRAM] unsigned char 
  buff            2   25[COMRAM] PTR void 
		 -> NULL(0), 
 Auto vars:     Size  Location     Type
  pdrv            1   27[COMRAM] unsigned char 
  result          2    0        int 
  res             1   28[COMRAM] enum E25
 Return value:  Size  Location     Type
                  1    wreg      enum E25
 Registers used:
		wreg, status,2, status,0
 Tracked objects:
		On entry : 
		On exit  : 
		Unchanged: 
 Data sizes:     COMRAM   BANK0   BANK1   BANK2   BANK3   BANK4   BANK5   BANK6   BANK7
      Params:         3       0       0       0       0       0       0       0       0
      Locals:         2       0       0       0       0       0       0       0       0
      Temps:          0       0       0       0       0       0       0       0       0
      Totals:         5       0       0       0       0       0       0       0       0
Total ram usage:        5 bytes
 Hardware stack levels used:    1
 Hardware stack levels required when called:    3
 This function calls:
		Nothing
 This function is called by:
		_sync
 This function uses a non-reentrant model


 *************** function _get_fattime *****************
 Defined at:
		line 810 in file "bibliotecas/tff.c"
 Parameters:    Size  Location     Type
		None
 Auto vars:     Size  Location     Type
  f_time         10   32[COMRAM] struct .
 Return value:  Size  Location     Type
                  4   28[COMRAM] unsigned long 
 Registers used:
		wreg, status,2, status,0, prodl, prodh, cstack
 Tracked objects:
		On entry : 
		On exit  : 
		Unchanged: 
 Data sizes:     COMRAM   BANK0   BANK1   BANK2   BANK3   BANK4   BANK5   BANK6   BANK7
      Params:         4       0       0       0       0       0       0       0       0
      Locals:        10       0       0       0       0       0       0       0       0
      Temps:          0      38       0       0       0       0       0       0       0
      Totals:        14      38       0       0       0       0       0       0       0
Total ram usage:       52 bytes
 Hardware stack levels used:    1
 Hardware stack levels required when called:    4
 This function calls:
		_GPSDay
		_GPSHour
		_GPSMinute
		_GPSMonth
		_GPSSecond
		_GPSyear
 This function is called by:
		_f_open
		_f_sync
 This function uses a non-reentrant model


 *************** function _GPSyear *****************
 Defined at:
		line 167 in file "bibliotecas/GPS.c"
 Parameters:    Size  Location     Type
		None
 Auto vars:     Size  Location     Type
		None
 Return value:  Size  Location     Type
                  2   24[COMRAM] unsigned int 
 Registers used:
		wreg, status,2, status,0, prodl, prodh
 Tracked objects:
		On entry : 
		On exit  : 
		Unchanged: 
 Data sizes:     COMRAM   BANK0   BANK1   BANK2   BANK3   BANK4   BANK5   BANK6   BANK7
      Params:         2       0       0       0       0       0       0       0       0
      Locals:         0       0       0       0       0       0       0       0       0
      Temps:          2       0       0       0       0       0       0       0       0
      Totals:         4       0       0       0       0       0       0       0       0
Total ram usage:        4 bytes
 Hardware stack levels used:    1
 Hardware stack levels required when called:    3
 This function calls:
		Nothing
 This function is called by:
		_get_fattime
 This function uses a non-reentrant model


 *************** function _GPSSecond *****************
 Defined at:
		line 146 in file "bibliotecas/GPS.c"
 Parameters:    Size  Location     Type
		None
 Auto vars:     Size  Location     Type
		None
 Return value:  Size  Location     Type
                  2   24[COMRAM] unsigned int 
 Registers used:
		wreg, status,2, status,0, prodl, prodh
 Tracked objects:
		On entry : 
		On exit  : 
		Unchanged: 
 Data sizes:     COMRAM   BANK0   BANK1   BANK2   BANK3   BANK4   BANK5   BANK6   BANK7
      Params:         2       0       0       0       0       0       0       0       0
      Locals:         0       0       0       0       0       0       0       0       0
      Temps:          2       0       0       0       0       0       0       0       0
      Totals:         4       0       0       0       0       0       0       0       0
Total ram usage:        4 bytes
 Hardware stack levels used:    1
 Hardware stack levels required when called:    3
 This function calls:
		Nothing
 This function is called by:
		_get_fattime
 This function uses a non-reentrant model


 *************** function _GPSMonth *****************
 Defined at:
		line 163 in file "bibliotecas/GPS.c"
 Parameters:    Size  Location     Type
		None
 Auto vars:     Size  Location     Type
		None
 Return value:  Size  Location     Type
                  2   24[COMRAM] unsigned int 
 Registers used:
		wreg, status,2, status,0, prodl, prodh
 Tracked objects:
		On entry : 
		On exit  : 
		Unchanged: 
 Data sizes:     COMRAM   BANK0   BANK1   BANK2   BANK3   BANK4   BANK5   BANK6   BANK7
      Params:         2       0       0       0       0       0       0       0       0
      Locals:         0       0       0       0       0       0       0       0       0
      Temps:          2       0       0       0       0       0       0       0       0
      Totals:         4       0       0       0       0       0       0       0       0
Total ram usage:        4 bytes
 Hardware stack levels used:    1
 Hardware stack levels required when called:    3
 This function calls:
		Nothing
 This function is called by:
		_get_fattime
 This function uses a non-reentrant model


 *************** function _GPSMinute *****************
 Defined at:
		line 150 in file "bibliotecas/GPS.c"
 Parameters:    Size  Location     Type
		None
 Auto vars:     Size  Location     Type
		None
 Return value:  Size  Location     Type
                  2   24[COMRAM] unsigned int 
 Registers used:
		wreg, status,2, status,0, prodl, prodh
 Tracked objects:
		On entry : 
		On exit  : 
		Unchanged: 
 Data sizes:     COMRAM   BANK0   BANK1   BANK2   BANK3   BANK4   BANK5   BANK6   BANK7
      Params:         2       0       0       0       0       0       0       0       0
      Locals:         0       0       0       0       0       0       0       0       0
      Temps:          2       0       0       0       0       0       0       0       0
      Totals:         4       0       0       0       0       0       0       0       0
Total ram usage:        4 bytes
 Hardware stack levels used:    1
 Hardware stack levels required when called:    3
 This function calls:
		Nothing
 This function is called by:
		_get_fattime
 This function uses a non-reentrant model


 *************** function _GPSHour *****************
 Defined at:
		line 154 in file "bibliotecas/GPS.c"
 Parameters:    Size  Location     Type
		None
 Auto vars:     Size  Location     Type
		None
 Return value:  Size  Location     Type
                  2   24[COMRAM] unsigned int 
 Registers used:
		wreg, status,2, status,0, prodl, prodh
 Tracked objects:
		On entry : 
		On exit  : 
		Unchanged: 
 Data sizes:     COMRAM   BANK0   BANK1   BANK2   BANK3   BANK4   BANK5   BANK6   BANK7
      Params:         2       0       0       0       0       0       0       0       0
      Locals:         0       0       0       0       0       0       0       0       0
      Temps:          2       0       0       0       0       0       0       0       0
      Totals:         4       0       0       0       0       0       0       0       0
Total ram usage:        4 bytes
 Hardware stack levels used:    1
 Hardware stack levels required when called:    3
 This function calls:
		Nothing
 This function is called by:
		_get_fattime
 This function uses a non-reentrant model


 *************** function _GPSDay *****************
 Defined at:
		line 159 in file "bibliotecas/GPS.c"
 Parameters:    Size  Location     Type
		None
 Auto vars:     Size  Location     Type
		None
 Return value:  Size  Location     Type
                  2   24[COMRAM] unsigned int 
 Registers used:
		wreg, status,2, status,0, prodl, prodh
 Tracked objects:
		On entry : 
		On exit  : 
		Unchanged: 
 Data sizes:     COMRAM   BANK0   BANK1   BANK2   BANK3   BANK4   BANK5   BANK6   BANK7
      Params:         2       0       0       0       0       0       0       0       0
      Locals:         0       0       0       0       0       0       0       0       0
      Temps:          2       0       0       0       0       0       0       0       0
      Totals:         4       0       0       0       0       0       0       0       0
Total ram usage:        4 bytes
 Hardware stack levels used:    1
 Hardware stack levels required when called:    3
 This function calls:
		Nothing
 This function is called by:
		_get_fattime
 This function uses a non-reentrant model


 *************** function _desliga_uart *****************
 Defined at:
		line 219 in file "bibliotecas/uart.c"
 Parameters:    Size  Location     Type
		None
 Auto vars:     Size  Location     Type
		None
 Return value:  Size  Location     Type
                  1    wreg      void 
 Registers used:
		wreg, status,2
 Tracked objects:
		On entry : 
		On exit  : 
		Unchanged: 
 Data sizes:     COMRAM   BANK0   BANK1   BANK2   BANK3   BANK4   BANK5   BANK6   BANK7
      Params:         0       0       0       0       0       0       0       0       0
      Locals:         0       0       0       0       0       0       0       0       0
      Temps:          0       0       0       0       0       0       0       0       0
      Totals:         0       0       0       0       0       0       0       0       0
Total ram usage:        0 bytes
 Hardware stack levels used:    1
 Hardware stack levels required when called:    3
 This function calls:
		Nothing
 This function is called by:
		_escrita_sdcard
 This function uses a non-reentrant model


 *************** function _desliga_SPI *****************
 Defined at:
		line 68 in file "bibliotecas/SPI.c"
 Parameters:    Size  Location     Type
		None
 Auto vars:     Size  Location     Type
		None
 Return value:  Size  Location     Type
                  1    wreg      void 
 Registers used:
		wreg, status,2
 Tracked objects:
		On entry : 
		On exit  : 
		Unchanged: 
 Data sizes:     COMRAM   BANK0   BANK1   BANK2   BANK3   BANK4   BANK5   BANK6   BANK7
      Params:         0       0       0       0       0       0       0       0       0
      Locals:         0       0       0       0       0       0       0       0       0
      Temps:          0       0       0       0       0       0       0       0       0
      Totals:         0       0       0       0       0       0       0       0       0
Total ram usage:        0 bytes
 Hardware stack levels used:    1
 Hardware stack levels required when called:    3
 This function calls:
		Nothing
 This function is called by:
		_escrita_sdcard
 This function uses a non-reentrant model


 *************** function _dados_gps_to_sd *****************
 Defined at:
		line 210 in file "bibliotecas/GPS.c"
 Parameters:    Size  Location     Type
		None
 Auto vars:     Size  Location     Type
		None
 Return value:  Size  Location     Type
                  1    wreg      void 
 Registers used:
		wreg, fsr1l, fsr1h, fsr2l, fsr2h, status,2, status,0, cstack
 Tracked objects:
		On entry : 
		On exit  : 
		Unchanged: 
 Data sizes:     COMRAM   BANK0   BANK1   BANK2   BANK3   BANK4   BANK5   BANK6   BANK7
      Params:         0       0       0       0       0       0       0       0       0
      Locals:         0       0       0       0       0       0       0       0       0
      Temps:          0       0       0       0       0       0       0       0       0
      Totals:         0       0       0       0       0       0       0       0       0
Total ram usage:        0 bytes
 Hardware stack levels used:    1
 Hardware stack levels required when called:    5
 This function calls:
		_monta_sd
 This function is called by:
		_main
 This function uses a non-reentrant model


 *************** function _monta_sd *****************
 Defined at:
		line 301 in file "bibliotecas/SDCard.c"
 Parameters:    Size  Location     Type
  index           1    wreg     unsigned char 
  dado            2   28[COMRAM] PTR unsigned char 
		 -> rawDate(7), rawLongitude(13), rawLatitude(13), rawTime(11), 
 Auto vars:     Size  Location     Type
  index           1   30[COMRAM] unsigned char 
  i               1   32[COMRAM] unsigned char 
  size            1   31[COMRAM] unsigned char 
 Return value:  Size  Location     Type
                  1    wreg      void 
 Registers used:
		wreg, fsr1l, fsr1h, fsr2l, fsr2h, status,2, status,0, cstack
 Tracked objects:
		On entry : 
		On exit  : 
		Unchanged: 
 Data sizes:     COMRAM   BANK0   BANK1   BANK2   BANK3   BANK4   BANK5   BANK6   BANK7
      Params:         2       0       0       0       0       0       0       0       0
      Locals:         3       0       0       0       0       0       0       0       0
      Temps:          0       0       0       0       0       0       0       0       0
      Totals:         5       0       0       0       0       0       0       0       0
Total ram usage:        5 bytes
 Hardware stack levels used:    1
 Hardware stack levels required when called:    4
 This function calls:
		_strlen
 This function is called by:
		_dados_gps_to_sd
 This function uses a non-reentrant model


 *************** function _strlen *****************
 Defined at:
		line 4 in file "C:\Program Files\Microchip\xc8\v2.30\pic\sources\c90\common\strlen.c"
 Parameters:    Size  Location     Type
  s               2   24[COMRAM] PTR const unsigned char 
		 -> rawDate(7), rawLongitude(13), rawLatitude(13), rawTime(11), 
 Auto vars:     Size  Location     Type
  cp              2   26[COMRAM] PTR const unsigned char 
		 -> rawDate(7), rawLongitude(13), rawLatitude(13), rawTime(11), 
 Return value:  Size  Location     Type
                  2   24[COMRAM] unsigned int 
 Registers used:
		wreg, fsr2l, fsr2h, status,2, status,0
 Tracked objects:
		On entry : 
		On exit  : 
		Unchanged: 
 Data sizes:     COMRAM   BANK0   BANK1   BANK2   BANK3   BANK4   BANK5   BANK6   BANK7
      Params:         2       0       0       0       0       0       0       0       0
      Locals:         2       0       0       0       0       0       0       0       0
      Temps:          0       0       0       0       0       0       0       0       0
      Totals:         4       0       0       0       0       0       0       0       0
Total ram usage:        4 bytes
 Hardware stack levels used:    1
 Hardware stack levels required when called:    3
 This function calls:
		Nothing
 This function is called by:
		_monta_sd
 This function uses a non-reentrant model


 *************** function _isr *****************
 Defined at:
		line 105 in file "main.c"
 Parameters:    Size  Location     Type
		None
 Auto vars:     Size  Location     Type
  cont            1   23[COMRAM] unsigned char 
 Return value:  Size  Location     Type
                  1    wreg      void 
 Registers used:
		wreg, fsr1l, fsr1h, fsr2l, fsr2h, status,2, status,0, tblptrl, tblptrh, tblptru, prodl, prodh, cstack
 Tracked objects:
		On entry : 
		On exit  : 
		Unchanged: 
 Data sizes:     COMRAM   BANK0   BANK1   BANK2   BANK3   BANK4   BANK5   BANK6   BANK7
      Params:         0       0       0       0       0       0       0       0       0
      Locals:         1       0       0       0       0       0       0       0       0
      Temps:         12       0       0       0       0       0       0       0       0
      Totals:        13       0       0       0       0       0       0       0       0
Total ram usage:       13 bytes
 Hardware stack levels used:    1
 Hardware stack levels required when called:    2
 This function calls:
		_GPSRead
		_recebe_dado_uart
		i2_write_timer_zero
 This function is called by:
		Interrupt level 2
 This function uses a non-reentrant model


 *************** function i2_write_timer_zero *****************
 Defined at:
		line 134 in file "bibliotecas/hardware.c"
 Parameters:    Size  Location     Type
  timer0          2    0[COMRAM] unsigned int 
 Auto vars:     Size  Location     Type
		None
 Return value:  Size  Location     Type
                  1    wreg      void 
 Registers used:
		None
 Tracked objects:
		On entry : 
		On exit  : 
		Unchanged: 
 Data sizes:     COMRAM   BANK0   BANK1   BANK2   BANK3   BANK4   BANK5   BANK6   BANK7
      Params:         2       0       0       0       0       0       0       0       0
      Locals:         0       0       0       0       0       0       0       0       0
      Temps:          0       0       0       0       0       0       0       0       0
      Totals:         2       0       0       0       0       0       0       0       0
Total ram usage:        2 bytes
 Hardware stack levels used:    1
 This function calls:
		Nothing
 This function is called by:
		_isr
 This function uses a non-reentrant model


 *************** function _recebe_dado_uart *****************
 Defined at:
		line 138 in file "bibliotecas/uart.c"
 Parameters:    Size  Location     Type
		None
 Auto vars:     Size  Location     Type
		None
 Return value:  Size  Location     Type
                  1    wreg      unsigned char 
 Registers used:
		wreg, status,2
 Tracked objects:
		On entry : 
		On exit  : 
		Unchanged: 
 Data sizes:     COMRAM   BANK0   BANK1   BANK2   BANK3   BANK4   BANK5   BANK6   BANK7
      Params:         0       0       0       0       0       0       0       0       0
      Locals:         0       0       0       0       0       0       0       0       0
      Temps:          0       0       0       0       0       0       0       0       0
      Totals:         0       0       0       0       0       0       0       0       0
Total ram usage:        0 bytes
 Hardware stack levels used:    1
 This function calls:
		Nothing
 This function is called by:
		_isr
 This function uses a non-reentrant model


 *************** function _GPSRead *****************
 Defined at:
		line 43 in file "bibliotecas/GPS.c"
 Parameters:    Size  Location     Type
  buff            1    wreg     unsigned char 
 Auto vars:     Size  Location     Type
  buff            1    9[COMRAM] unsigned char 
  c               1   10[COMRAM] unsigned char 
 Return value:  Size  Location     Type
                  2  346[None  ] int 
 Registers used:
		wreg, fsr1l, fsr1h, fsr2l, fsr2h, status,2, status,0, tblptrl, tblptrh, tblptru, cstack
 Tracked objects:
		On entry : 
		On exit  : 
		Unchanged: 
 Data sizes:     COMRAM   BANK0   BANK1   BANK2   BANK3   BANK4   BANK5   BANK6   BANK7
      Params:         0       0       0       0       0       0       0       0       0
      Locals:         2       0       0       0       0       0       0       0       0
      Temps:          0       0       0       0       0       0       0       0       0
      Totals:         2       0       0       0       0       0       0       0       0
Total ram usage:        2 bytes
 Hardware stack levels used:    1
 Hardware stack levels required when called:    1
 This function calls:
		_strcmp
		_stringcpy
 This function is called by:
		_isr
 This function uses a non-reentrant model


 *************** function _stringcpy *****************
 Defined at:
		line 34 in file "bibliotecas/GPS.c"
 Parameters:    Size  Location     Type
  str1            2    0[COMRAM] PTR unsigned char 
		 -> buffer(12), 
  str2            2    2[COMRAM] PTR unsigned char 
		 -> rawFix(2), rawAltitude(7), rawSatellites(3), rawDate(7), 
		 -> rawCourse(6), rawSpeed(6), rawLongitude(13), rawLatitude(13), 
		 -> rawTime(11), sentence(6), 
  dir             2    4[COMRAM] int 
 Auto vars:     Size  Location     Type
  chr             1    8[COMRAM] unsigned char 
 Return value:  Size  Location     Type
                  1    wreg      void 
 Registers used:
		wreg, fsr1l, fsr1h, fsr2l, fsr2h, status,2, status,0
 Tracked objects:
		On entry : 
		On exit  : 
		Unchanged: 
 Data sizes:     COMRAM   BANK0   BANK1   BANK2   BANK3   BANK4   BANK5   BANK6   BANK7
      Params:         6       0       0       0       0       0       0       0       0
      Locals:         1       0       0       0       0       0       0       0       0
      Temps:          2       0       0       0       0       0       0       0       0
      Totals:         9       0       0       0       0       0       0       0       0
Total ram usage:        9 bytes
 Hardware stack levels used:    1
 This function calls:
		Nothing
 This function is called by:
		_GPSRead
 This function uses a non-reentrant model


 *************** function _strcmp *****************
 Defined at:
		line 33 in file "C:\Program Files\Microchip\xc8\v2.30\pic\sources\c90\common\strcmp.c"
 Parameters:    Size  Location     Type
  s1              2    0[COMRAM] PTR const unsigned char 
		 -> sentence(6), 
  s2              2    2[COMRAM] PTR const unsigned char 
		 -> STR_6(6), STR_5(6), 
 Auto vars:     Size  Location     Type
  r               1    6[COMRAM] char 
 Return value:  Size  Location     Type
                  2    0[COMRAM] int 
 Registers used:
		wreg, fsr2l, fsr2h, status,2, status,0, tblptrl, tblptrh, tblptru
 Tracked objects:
		On entry : 
		On exit  : 
		Unchanged: 
 Data sizes:     COMRAM   BANK0   BANK1   BANK2   BANK3   BANK4   BANK5   BANK6   BANK7
      Params:         4       0       0       0       0       0       0       0       0
      Locals:         1       0       0       0       0       0       0       0       0
      Temps:          2       0       0       0       0       0       0       0       0
      Totals:         7       0       0       0       0       0       0       0       0
Total ram usage:        7 bytes
 Hardware stack levels used:    1
 This function calls:
		Nothing
 This function is called by:
		_GPSRead
 This function uses a non-reentrant model



MODULE INFORMATION

Module		Function		Class		Link	Load	Size
C:\Program Files\Microchip\xc8\v2.30\pic\sources\c90\common\lwmod.c
		___lwmod       		CODE           	4EC0	0000	66

C:\Program Files\Microchip\xc8\v2.30\pic\sources\c90\common\lwmod.c estimated size: 66

bibliotecas/uart.c
		_configura_baudrate_uart		CODE           	3D04	0000	268
		_recebe_dado_uart		CODE           	538C	0000	18
		_desliga_uart  		CODE           	53CC	0000	14
		_inicializa_uart		CODE           	51D0	0000	34

bibliotecas/uart.c estimated size: 334

bibliotecas/SPI.c
		_escreve_SPI   		CODE           	53AE	0000	16
		_inicializa_SPI		CODE           	529C	0000	32
		_desliga_SPI   		CODE           	53FE	0000	12
		_leitura_SPI   		CODE           	53F2	0000	12

bibliotecas/SPI.c estimated size: 72

C:\Program Files\Microchip\xc8\v2.30\pic\sources\c90\common\strlen.c
		_strlen        		CODE           	5136	0000	42

C:\Program Files\Microchip\xc8\v2.30\pic\sources\c90\common\strlen.c estimated size: 42

C:\Program Files\Microchip\xc8\v2.30\pic\sources\c90\common\__lldiv.c
		___lldiv       		CODE           	473A	0000	130

C:\Program Files\Microchip\xc8\v2.30\pic\sources\c90\common\__lldiv.c estimated size: 130

C:\Program Files\Microchip\xc8\v2.30\pic\sources\c90\common\strcmp.c
		_strcmp        		CODE           	4D18	0000	74

C:\Program Files\Microchip\xc8\v2.30\pic\sources\c90\common\strcmp.c estimated size: 74

bibliotecas/diskio.c
		_disk_initialize		CODE           	5160	0000	38
		_disk_write    		CODE           	4CCA	0000	78
		_disk_status   		CODE           	5056	0000	48
		_sdc_reset     		CODE           	4512	0000	144
		_disk_ioctl    		CODE           	52BC	0000	32
		_sdc_disk_read 		CODE           	3AC8	0000	292
		_sdc_disk_initialize		CODE           	2046	0000	768
		_disk_read     		CODE           	491E	0000	112
		_sdc_disk_write		CODE           	2F78	0000	438
		_sdc_disk_status		CODE           	539E	0000	16

bibliotecas/diskio.c estimated size: 1966

C:\Program Files\Microchip\xc8\v2.30\pic\sources\c90\common\strcpy.c
		_strcpy        		CODE           	5086	0000	46

C:\Program Files\Microchip\xc8\v2.30\pic\sources\c90\common\strcpy.c estimated size: 46

C:\Program Files\Microchip\xc8\v2.30\pic\sources\c90\common\memset.c
		_memset        		CODE           	50E0	0000	44

C:\Program Files\Microchip\xc8\v2.30\pic\sources\c90\common\memset.c estimated size: 44

C:\Program Files\Microchip\xc8\v2.30\pic\sources\c90\common\llmod.c
		___llmod       		CODE           	4A60	0000	102

C:\Program Files\Microchip\xc8\v2.30\pic\sources\c90\common\llmod.c estimated size: 102

C:\Program Files\Microchip\xc8\v2.30\pic\sources\c90\common\atoi.c
		_atoi          		CODE           	3F1C	0000	206

C:\Program Files\Microchip\xc8\v2.30\pic\sources\c90\common\atoi.c estimated size: 206

C:\Program Files\Microchip\xc8\v2.30\pic\sources\c90\common\lwdiv.c
		___lwdiv       		CODE           	4BD4	0000	82

C:\Program Files\Microchip\xc8\v2.30\pic\sources\c90\common\lwdiv.c estimated size: 82

C:\Program Files\Microchip\xc8\v2.30\pic\sources\c90\common\itoa.c
		_itoa          		CODE           	5024	0000	50
		_utoa          		CODE           	43EC	0000	148

C:\Program Files\Microchip\xc8\v2.30\pic\sources\c90\common\itoa.c estimated size: 198

C:\Program Files\Microchip\xc8\v2.30\pic\sources\c90\common\isdigit.c
		_isdigit       		CODE           	52DC	0000	30

C:\Program Files\Microchip\xc8\v2.30\pic\sources\c90\common\isdigit.c estimated size: 30

bibliotecas/SDCard.c
		_response      		CODE           	53DA	0000	12
		_dummy_clocks  		CODE           	4F42	0000	60
		_escrita_sdcard		CODE           	3878	0000	300
		_monta_sd      		CODE           	3E10	0000	268
		_command       		CODE           	4B24	0000	90
		_proceed       		CODE           	53E6	0000	12
		_wait_ready    		CODE           	4FEE	0000	54

bibliotecas/SDCard.c estimated size: 796

C:\Program Files\Microchip\xc8\v2.30\pic\sources\c90\common\memcmp.c
		_memcmp        		CODE           	4480	0000	146

C:\Program Files\Microchip\xc8\v2.30\pic\sources\c90\common\memcmp.c estimated size: 146

C:\Program Files\Microchip\xc8\v2.30\pic\sources\c90\common\memcpy.c
		_memcpy        		CODE           	4E7C	0000	68

C:\Program Files\Microchip\xc8\v2.30\pic\sources\c90\common\memcpy.c estimated size: 68

bibliotecas/hardware.c
		_init_hardware 		CODE           	534E	0000	22
		_config_timer_dois		CODE           	53BE	0000	14
		_config_timer_zero		CODE           	5334	0000	26
		_init_ports    		CODE           	5318	0000	28
		_write_timer_zero		CODE           	540A	0000	10
		_init_interrupt		CODE           	537A	0000	18
		_init_oscilador		CODE           	543C	0000	8

bibliotecas/hardware.c estimated size: 126

shared
		mensagem_inicial@F3640		MEDIUMCONST    	60E7	0000	17
		mensagem_inicial@F3638		MEDIUMCONST    	60F8	0000	17
		__initialization		CODE           	420E	0000	150
		i2_write_timer_zero		CODE           	5432	0000	10

shared estimated size: 194

C:\Program Files\Microchip\xc8\v2.30\pic\sources\c90\common\Umul16.c
		___wmul        		CODE           	5186	0000	38

C:\Program Files\Microchip\xc8\v2.30\pic\sources\c90\common\Umul16.c estimated size: 38

C:\Program Files\Microchip\xc8\v2.30\pic\sources\c90\common\aldiv.c
		___aldiv       		CODE           	3FEA	0000	204

C:\Program Files\Microchip\xc8\v2.30\pic\sources\c90\common\aldiv.c estimated size: 204

bibliotecas/display_lcd.c
		_delay         		CODE           	52FA	0000	30
		_init_lcd      		CODE           	42B2	0000	158
		_endereco_cursor_lcd		CODE           	498E	0000	106
		_escreve_cmd_lcd		CODE           	45A2	0000	140
		_posicao_cursor_lcd		CODE           	4AC6	0000	94
		_escreve_caractere_lcd		CODE           	48AC	0000	114
		_escreve_frase_ram_lcd		CODE           	4C26	0000	82
		_escreve_inteiro_lcd		CODE           	4FB8	0000	54

bibliotecas/display_lcd.c estimated size: 778

main.c
		_main          		CODE           	50B4	0000	44
		_verifica_fence_externo		CODE           	0012	0000	1772
		_troca_de_tela 		CODE           	19D8	0000	828
		_disparo_gravacao		CODE           	5364	0000	22
		_verifica_dados_operacionais		CODE           	544C	0000	2
		_isr           		CODE           	0008	0000	286
		_escalonador   		CODE           	4168	0000	166
		_mensagem_inicial		CODE           	4836	0000	118
		_inicializa_tarefas		CODE           	49F8	0000	104

main.c estimated size: 3342

bibliotecas/GPS.c
		_GPSSecond     		CODE           	5214	0000	34
		_GPSHour       		CODE           	51AC	0000	36
		_GPSMinute     		CODE           	5258	0000	34
		_stringcpy     		CODE           	4DF2	0000	70
		_GPSDay        		CODE           	527A	0000	34
		_Longitude     		CODE           	5414	0000	10
		_GPSMonth      		CODE           	5236	0000	34
		_fix           		CODE           	5428	0000	10
		_GPSyear       		CODE           	51F2	0000	34
		_GPSRead       		CODE           	2346	0000	708
		_dados_gps_to_sd		CODE           	4F7E	0000	58
		_Latitude      		CODE           	541E	0000	10

bibliotecas/GPS.c estimated size: 1072

bibliotecas/tff.c
		_reserve_direntry		CODE           	2882	0000	622
		_sync          		CODE           	4C78	0000	82
		_remove_chain  		CODE           	4350	0000	156
		_f_mount       		CODE           	4D62	0000	72
		_get_cluster   		CODE           	2D56	0000	546
		_get_fattime   		CODE           	3722	0000	342
		_fputs         		CODE           	462E	0000	138
		_auto_mount    		CODE           	0C88	0000	1352
		_create_chain  		CODE           	32D8	0000	396
		_f_lseek       		CODE           	11D0	0000	1162
		_validate      		CODE           	4DAA	0000	72
		_check_fs      		CODE           	46B8	0000	130
		_fprintf       		CODE           	165A	0000	894
		_f_sync        		CODE           	39A4	0000	292
		_trace_path    		CODE           	260A	0000	632
		_f_write       		CODE           	06FE	0000	1418
		_fputc         		CODE           	4F02	0000	64
		_put_cluster   		CODE           	2AF0	0000	614
		_make_dirfile  		CODE           	35C8	0000	346
		_clust2sect    		CODE           	40B6	0000	178
		_f_open        		CODE           	1D14	0000	818
		_next_dir_entry		CODE           	3464	0000	356
		_f_close       		CODE           	510C	0000	42
		_move_window   		CODE           	312E	0000	426

bibliotecas/tff.c estimated size: 11150

C:\Program Files\Microchip\xc8\v2.30\pic\sources\c90\common\Umul32.c
		___lmul        		CODE           	4B7E	0000	86

C:\Program Files\Microchip\xc8\v2.30\pic\sources\c90\common\Umul32.c estimated size: 86

C:\Program Files\Microchip\xc8\v2.30\pic\sources\c90\common\strcat.c
		_strcat        		CODE           	4E38	0000	68

C:\Program Files\Microchip\xc8\v2.30\pic\sources\c90\common\strcat.c estimated size: 68

